 GLShadersMPD

 Timestamp is 5c8ee225 (Mon Mar 18 02:11:17 2019)

 Preferred load address is 10000000

 Start         Length     Name                   Class
 0001:00000000 0003c989H .text                   CODE
 0001:0003c990 00002ee9H .text$x                 CODE
 0001:0003f879 0001e007H .textbss                CODE
 0002:00000000 00000b98H .rdata                  DATA
 0002:00000b98 00000151H .rdata$r                DATA
 0002:00000cf0 000026edH .xdata$x                DATA
 0002:000033e0 00001baaH .edata                  DATA
 0003:00000000 00000104H .CRT$XCA                DATA
 0003:00000104 0000015aH .CRT$XCU                DATA
 0003:00000260 00000104H .CRT$XCZ                DATA
 0003:00000364 00000104H .CRT$XIA                DATA
 0003:00000468 00000104H .CRT$XIZ                DATA
 0003:00000570 000048c1H .data                   DATA
 0003:00004e38 000005fcH .bss                    DATA
 0004:00000000 000000b4H .idata$2                DATA
 0004:000000b4 00000014H .idata$3                DATA
 0004:000000c8 00000840H .idata$4                DATA
 0004:00000908 00000840H .idata$5                DATA
 0004:00001148 00003ae7H .idata$6                DATA

  Address         Publics by Value              Rva+Base     Lib:Object

 0001:00001c00       ?HashValue@@YAKPBD@Z       10002c00 f   Hash.obj
 0001:00001c60       ??_H@YGXPAXIHP6EX0@Z@Z     10002c60 f i RenderSession.obj
 0001:00001cb0       ?hFOVtovFOV@?%C:\GAMES\STEAM\STEAMAPPS\COMMON\SERIOUS SAM CLASSIC THE SECOND ENCOUNTER\Sources\GLShaders\RenderSession.cpp18084318@@YAMMM@Z 10002cb0 f   RenderSession.obj
 0001:00001d6c       ?LoadTextureData@?%C:\GAMES\STEAM\STEAMAPPS\COMMON\SERIOUS SAM CLASSIC THE SECOND ENCOUNTER\Sources\GLShaders\RenderSession.cpp18084318@@YA_NPBDAAPAEAAH22@Z 10002d6c f   RenderSession.obj
 0001:00001f41       ?AlexShaders_RegisterRenderSession@@YAHXZ 10002f41 f   RenderSession.obj
 0001:0000200b       ?AlexShaders_SetRenderSession@@YAXH@Z 1000300b f   RenderSession.obj
 0001:00002018       ?AlexShaders_Initialize@@YA_NXZ 10003018 f   RenderSession.obj
 0001:0000207c       ?AlexShaders_Initialized@@YA_NXZ 1000307c f   RenderSession.obj
 0001:00002086       ?AlexShaders_ClearAllSessions@@YAXXZ 10003086 f   RenderSession.obj
 0001:00002251       ?AlexShaders_Finalize@@YAXXZ 10003251 f   RenderSession.obj
 0001:0000226e       ?LoadTexture2D@@YAIPAVCTextureObject@@@Z 1000326e f   RenderSession.obj
 0001:00002690       ?LoadTextureCube@@YAIPAVCTextureObject@@@Z 10003690 f   RenderSession.obj
 0001:00002c8d       ?AlexShaders_Precache@@YAXAAVCModelInstance@@@Z 10003c8d f   RenderSession.obj
 0001:00002d5b       ?AlexShaders_SetCustomFloatPool@@YAPAMPAM@Z 10003d5b f   RenderSession.obj
 0001:00002d7e       ?AlexShaders_SetCustomVecPool@@YAPAMPAM@Z 10003d7e f   RenderSession.obj
 0001:00002da1       ?LoadTexture@@YAIIPAVCTextureObject@@@Z 10003da1 f   RenderSession.obj
 0001:00002e80       ?CreateTangentBuffers@@YAXAAURenderSession@?%C:\GAMES\STEAM\STEAMAPPS\COMMON\SERIOUS SAM CLASSIC THE SECOND ENCOUNTER\Sources\GLShaders\RenderSession.cpp18084318@@@Z 10003e80 f   RenderSession.obj
 0001:00003fab       ?UpdateVertexBuffer@@YAXAAURenderSession@?%C:\GAMES\STEAM\STEAMAPPS\COMMON\SERIOUS SAM CLASSIC THE SECOND ENCOUNTER\Sources\GLShaders\RenderSession.cpp18084318@@_N@Z 10004fab f   RenderSession.obj
 0001:00004419       ?InitSession@@YAXAAURenderSession@?%C:\GAMES\STEAM\STEAMAPPS\COMMON\SERIOUS SAM CLASSIC THE SECOND ENCOUNTER\Sources\GLShaders\RenderSession.cpp18084318@@@Z 10005419 f   RenderSession.obj
 0001:00004676       ?FindOrCreateProperSessionForSurface@@YAAAURenderSession@?%C:\GAMES\STEAM\STEAMAPPS\COMMON\SERIOUS SAM CLASSIC THE SECOND ENCOUNTER\Sources\GLShaders\RenderSession.cpp18084318@@AAV?$vector@URenderSession@?%C:\GAMES\STEAM\STEAMAPPS\COMMON\SERIOUS SAM CLASSIC THE SECOND ENCOUNTER\Sources\GLShaders\RenderSession.cpp18084318@@V?$allocator@URenderSession@?%C:\GAMES\STEAM\STEAMAPPS\COMMON\SERIOUS SAM CLASSIC THE SECOND ENCOUNTER\Sources\GLShaders\RenderSession.cpp18084318@@@std@@@std@@J@Z 10005676 f   RenderSession.obj
 0001:0000474a       ?AlexRenderWithShader@@YAXABUShaderSettings@@@Z 1000574a f   RenderSession.obj
 0001:000084e0       ??1?$map@KIU?$less@K@std@@V?$allocator@I@2@@std@@QAE@XZ 100094e0 f i RenderSession.obj
 0001:00008510       ??0RenderSession@?%C:\GAMES\STEAM\STEAMAPPS\COMMON\SERIOUS SAM CLASSIC THE SECOND ENCOUNTER\Sources\GLShaders\RenderSession.cpp18084318@@QAE@XZ 10009510 f i RenderSession.obj
 0001:00008610       ??1RenderSession@?%C:\GAMES\STEAM\STEAMAPPS\COMMON\SERIOUS SAM CLASSIC THE SECOND ENCOUNTER\Sources\GLShaders\RenderSession.cpp18084318@@QAE@XZ 10009610 f i RenderSession.obj
 0001:00008690       ??3@YAXPAXHPBDH@Z          10009690 f i RenderSession.obj
 0001:000086b0       ??0vec2@glm@@QAE@MM@Z      100096b0 f i RenderSession.obj
 0001:000086f0       ??0vec3@glm@@QAE@XZ        100096f0 f i RenderSession.obj
 0001:00008730       ??0vec3@glm@@QAE@ABU01@@Z  10009730 f i RenderSession.obj
 0001:00008780       ??Xvec3@glm@@QAEAAU01@M@Z  10009780 f i RenderSession.obj
 0001:000087e0       ??Zvec3@glm@@QAEAAU01@ABU01@@Z 100097e0 f i RenderSession.obj
 0001:00008840       ??0vec4@glm@@QAE@MMMM@Z    10009840 f i RenderSession.obj
 0001:00008890       ??Bvec4@glm@@QAE?AUvec3@1@XZ 10009890 f i RenderSession.obj
 0001:00008900       ??0vec3@glm@@QAE@MMM@Z     10009900 f i RenderSession.obj
 0001:00008940       ??Avec4@glm@@QAEAAMI@Z     10009940 f i RenderSession.obj
 0001:00008970       ??0mat4@glm@@QAE@XZ        10009970 f i RenderSession.obj
 0001:000089b0       ??0vec4@glm@@QAE@XZ        100099b0 f i RenderSession.obj
 0001:00008a00       ??Amat4@glm@@QAEAAUvec4@1@I@Z 10009a00 f i RenderSession.obj
 0001:00008a30       ??0vec4@glm@@QAE@ABU01@@Z  10009a30 f i RenderSession.obj
 0001:00008a90       ??0vec4@glm@@QAE@M@Z       10009a90 f i RenderSession.obj
 0001:00008ae0       ??Avec4@glm@@QBEMI@Z       10009ae0 f i RenderSession.obj
 0001:00008b10       ??Xvec4@glm@@QAEAAU01@ABU01@@Z 10009b10 f i RenderSession.obj
 0001:00008b90       ??Yvec4@glm@@QAEAAU01@ABU01@@Z 10009b90 f i RenderSession.obj
 0001:00008c10       ??Amat4@glm@@QBEABUvec4@1@I@Z 10009c10 f i RenderSession.obj
 0001:00008c40       ??0mat4@glm@@QAE@M@Z       10009c40 f i RenderSession.obj
 0001:00008cd0       ??0mat4@glm@@QAE@ABU01@@Z  10009cd0 f i RenderSession.obj
 0001:00008d60       ??Xvec3@glm@@QAEAAU01@ABU01@@Z 10009d60 f i RenderSession.obj
 0001:00008dc0       _sqrtf                     10009dc0 f i RenderSession.obj
 0001:00008e00       ??_0vec3@glm@@QAEAAU01@M@Z 10009e00 f i RenderSession.obj
 0001:00008e60       ??Avec3@glm@@QAEAAMI@Z     10009e60 f i RenderSession.obj
 0001:00008e90       ??Avec3@glm@@QBEABMI@Z     10009e90 f i RenderSession.obj
 0001:00008ec0       ??0mat3@glm@@QAE@XZ        10009ec0 f i RenderSession.obj
 0001:00008f00       ??Amat3@glm@@QAEAAUvec3@1@I@Z 10009f00 f i RenderSession.obj
 0001:00008f30       ??0mat4@glm@@QAE@ABUmat3@1@@Z 10009f30 f i RenderSession.obj
 0001:00009070       ??0vec4@glm@@QAE@ABUvec3@1@M@Z 1000a070 f i RenderSession.obj
 0001:000090d0       ??Amat3@glm@@QBEABUvec3@1@I@Z 1000a0d0 f i RenderSession.obj
 0001:00009100       ??Xvec4@glm@@QAEAAU01@M@Z  1000a100 f i RenderSession.obj
 0001:00009170       ??0mat3@glm@@QAE@M@Z       1000a170 f i RenderSession.obj
 0001:00009200       ??0mat3@glm@@QAE@ABU01@@Z  1000a200 f i RenderSession.obj
 0001:00009290       ??Zvec4@glm@@QAEAAU01@ABU01@@Z 1000a290 f i RenderSession.obj
 0001:00009310       ??0mat4@glm@@QAE@ABUvec4@1@000@Z 1000a310 f i RenderSession.obj
 0001:000093f0       ??0?$vector@IV?$allocator@I@std@@@std@@QAE@ABV?$allocator@I@1@@Z 1000a3f0 f i RenderSession.obj
 0001:00009440       ??1?$vector@IV?$allocator@I@std@@@std@@QAE@XZ 1000a440 f i RenderSession.obj
 0001:000094d0       ?size@?$vector@IV?$allocator@I@std@@@std@@QBEIXZ 1000a4d0 f i RenderSession.obj
 0001:00009530       ?at@?$vector@IV?$allocator@I@std@@@std@@QAEAAII@Z 1000a530 f i RenderSession.obj
 0001:00009590       ?begin@?$vector@IV?$allocator@I@std@@@std@@QAEPAIXZ 1000a590 f i RenderSession.obj
 0001:000095b0       ??A?$vector@IV?$allocator@I@std@@@std@@QAEAAII@Z 1000a5b0 f i RenderSession.obj
 0001:000095f0       ?push_back@?$vector@IV?$allocator@I@std@@@std@@QAEXABI@Z 1000a5f0 f i RenderSession.obj
 0001:00009630       ?end@?$vector@IV?$allocator@I@std@@@std@@QAEPAIXZ 1000a630 f i RenderSession.obj
 0001:00009650       ?size@?$vector@UShaderTexture@ShaderSettings@@V?$allocator@UShaderTexture@ShaderSettings@@@std@@@std@@QBEIXZ 1000a650 f i RenderSession.obj
 0001:000096b0       ?at@?$vector@UShaderTexture@ShaderSettings@@V?$allocator@UShaderTexture@ShaderSettings@@@std@@@std@@QBEABUShaderTexture@ShaderSettings@@I@Z 1000a6b0 f i RenderSession.obj
 0001:00009710       ?size@?$vector@UShaderUniform@ShaderSettings@@V?$allocator@UShaderUniform@ShaderSettings@@@std@@@std@@QBEIXZ 1000a710 f i RenderSession.obj
 0001:00009770       ?at@?$vector@UShaderUniform@ShaderSettings@@V?$allocator@UShaderUniform@ShaderSettings@@@std@@@std@@QBEABUShaderUniform@ShaderSettings@@I@Z 1000a770 f i RenderSession.obj
 0001:000097d0       ??0?$vector@PAVCTextureObject@@V?$allocator@PAVCTextureObject@@@std@@@std@@QAE@ABV?$allocator@PAVCTextureObject@@@1@@Z 1000a7d0 f i RenderSession.obj
 0001:00009820       ??1?$vector@PAVCTextureObject@@V?$allocator@PAVCTextureObject@@@std@@@std@@QAE@XZ 1000a820 f i RenderSession.obj
 0001:000098b0       ?reserve@?$vector@PAVCTextureObject@@V?$allocator@PAVCTextureObject@@@std@@@std@@QAEXI@Z 1000a8b0 f i RenderSession.obj
 0001:000099b0       ?size@?$vector@PAVCTextureObject@@V?$allocator@PAVCTextureObject@@@std@@@std@@QBEIXZ 1000a9b0 f i RenderSession.obj
 0001:00009a10       ?at@?$vector@PAVCTextureObject@@V?$allocator@PAVCTextureObject@@@std@@@std@@QAEAAPAVCTextureObject@@I@Z 1000aa10 f i RenderSession.obj
 0001:00009a70       ??A?$vector@PAVCTextureObject@@V?$allocator@PAVCTextureObject@@@std@@@std@@QAEAAPAVCTextureObject@@I@Z 1000aa70 f i RenderSession.obj
 0001:00009ab0       ?back@?$vector@PAVCTextureObject@@V?$allocator@PAVCTextureObject@@@std@@@std@@QAEAAPAVCTextureObject@@XZ 1000aab0 f i RenderSession.obj
 0001:00009ae0       ?push_back@?$vector@PAVCTextureObject@@V?$allocator@PAVCTextureObject@@@std@@@std@@QAEXABQAVCTextureObject@@@Z 1000aae0 f i RenderSession.obj
 0001:00009b20       ??0?$vector@V?$vector@URenderSession@?%C:\GAMES\STEAM\STEAMAPPS\COMMON\SERIOUS SAM CLASSIC THE SECOND ENCOUNTER\Sources\GLShaders\RenderSession.cpp18084318@@V?$allocator@URenderSession@?%C:\GAMES\STEAM\STEAMAPPS\COMMON\SERIOUS SAM CLASSIC THE SECOND ENCOUNTER\Sources\GLShaders\RenderSession.cpp18084318@@@std@@@std@@V?$allocator@V?$vector@URenderSession@?%C:\GAMES\STEAM\STEAMAPPS\COMMON\SERIOUS SAM CLASSIC THE SECOND ENCOUNTER\Sources\GLShaders\RenderSession.cpp18084318@@V?$allocator@URenderSession@?%C:\GAMES\STEAM\STEAMAPPS\COMMON\SERIOUS SAM CLASSIC THE SECOND ENCOUNTER\Sources\GLShaders\RenderSession.cpp18084318@@@std@@@std@@@2@@std@@QAE@ABV?$allocator@V?$vector@URenderSession@?%C:\GAMES\STEAM\STEAMAPPS\COMMON\SERIOUS SAM CLASSIC THE SECOND ENCOUNTER\Sources\GLShaders\RenderSession.cpp18084318@@V?$allocator@URenderSession@?%C:\GAMES\STEAM\STEAMAPPS\COMMON\SERIOUS SAM CLASSIC THE SECOND ENCOUNTER\Sources\GLShaders\RenderSession.cpp18084318@@@std@@@std@@@1@@Z 1000ab20 f i RenderSession.obj
 0001:00009b70       ??1?$vector@V?$vector@URenderSession@?%C:\GAMES\STEAM\STEAMAPPS\COMMON\SERIOUS SAM CLASSIC THE SECOND ENCOUNTER\Sources\GLShaders\RenderSession.cpp18084318@@V?$allocator@URenderSession@?%C:\GAMES\STEAM\STEAMAPPS\COMMON\SERIOUS SAM CLASSIC THE SECOND ENCOUNTER\Sources\GLShaders\RenderSession.cpp18084318@@@std@@@std@@V?$allocator@V?$vector@URenderSession@?%C:\GAMES\STEAM\STEAMAPPS\COMMON\SERIOUS SAM CLASSIC THE SECOND ENCOUNTER\Sources\GLShaders\RenderSession.cpp18084318@@V?$allocator@URenderSession@?%C:\GAMES\STEAM\STEAMAPPS\COMMON\SERIOUS SAM CLASSIC THE SECOND ENCOUNTER\Sources\GLShaders\RenderSession.cpp18084318@@@std@@@std@@@2@@std@@QAE@XZ 1000ab70 f i RenderSession.obj
 0001:00009c00       ?size@?$vector@V?$vector@URenderSession@?%C:\GAMES\STEAM\STEAMAPPS\COMMON\SERIOUS SAM CLASSIC THE SECOND ENCOUNTER\Sources\GLShaders\RenderSession.cpp18084318@@V?$allocator@URenderSession@?%C:\GAMES\STEAM\STEAMAPPS\COMMON\SERIOUS SAM CLASSIC THE SECOND ENCOUNTER\Sources\GLShaders\RenderSession.cpp18084318@@@std@@@std@@V?$allocator@V?$vector@URenderSession@?%C:\GAMES\STEAM\STEAMAPPS\COMMON\SERIOUS SAM CLASSIC THE SECOND ENCOUNTER\Sources\GLShaders\RenderSession.cpp18084318@@V?$allocator@URenderSession@?%C:\GAMES\STEAM\STEAMAPPS\COMMON\SERIOUS SAM CLASSIC THE SECOND ENCOUNTER\Sources\GLShaders\RenderSession.cpp18084318@@@std@@@std@@@2@@std@@QBEIXZ 1000ac00 f i RenderSession.obj
 0001:00009c60       ??A?$vector@V?$vector@URenderSession@?%C:\GAMES\STEAM\STEAMAPPS\COMMON\SERIOUS SAM CLASSIC THE SECOND ENCOUNTER\Sources\GLShaders\RenderSession.cpp18084318@@V?$allocator@URenderSession@?%C:\GAMES\STEAM\STEAMAPPS\COMMON\SERIOUS SAM CLASSIC THE SECOND ENCOUNTER\Sources\GLShaders\RenderSession.cpp18084318@@@std@@@std@@V?$allocator@V?$vector@URenderSession@?%C:\GAMES\STEAM\STEAMAPPS\COMMON\SERIOUS SAM CLASSIC THE SECOND ENCOUNTER\Sources\GLShaders\RenderSession.cpp18084318@@V?$allocator@URenderSession@?%C:\GAMES\STEAM\STEAMAPPS\COMMON\SERIOUS SAM CLASSIC THE SECOND ENCOUNTER\Sources\GLShaders\RenderSession.cpp18084318@@@std@@@std@@@2@@std@@QAEAAV?$vector@URenderSession@?%C:\GAMES\STEAM\STEAMAPPS\COMMON\SERIOUS SAM CLASSIC THE SECOND ENCOUNTER\Sources\GLShaders\RenderSession.cpp18084318@@V?$allocator@URenderSession@?%C:\GAMES\STEAM\STEAMAPPS\COMMON\SERIOUS SAM CLASSIC THE SECOND ENCOUNTER\Sources\GLShaders\RenderSession.cpp18084318@@@std@@@1@I@Z 1000ac60 f i RenderSession.obj
 0001:00009ca0       ?back@?$vector@V?$vector@URenderSession@?%C:\GAMES\STEAM\STEAMAPPS\COMMON\SERIOUS SAM CLASSIC THE SECOND ENCOUNTER\Sources\GLShaders\RenderSession.cpp18084318@@V?$allocator@URenderSession@?%C:\GAMES\STEAM\STEAMAPPS\COMMON\SERIOUS SAM CLASSIC THE SECOND ENCOUNTER\Sources\GLShaders\RenderSession.cpp18084318@@@std@@@std@@V?$allocator@V?$vector@URenderSession@?%C:\GAMES\STEAM\STEAMAPPS\COMMON\SERIOUS SAM CLASSIC THE SECOND ENCOUNTER\Sources\GLShaders\RenderSession.cpp18084318@@V?$allocator@URenderSession@?%C:\GAMES\STEAM\STEAMAPPS\COMMON\SERIOUS SAM CLASSIC THE SECOND ENCOUNTER\Sources\GLShaders\RenderSession.cpp18084318@@@std@@@std@@@2@@std@@QAEAAV?$vector@URenderSession@?%C:\GAMES\STEAM\STEAMAPPS\COMMON\SERIOUS SAM CLASSIC THE SECOND ENCOUNTER\Sources\GLShaders\RenderSession.cpp18084318@@V?$allocator@URenderSession@?%C:\GAMES\STEAM\STEAMAPPS\COMMON\SERIOUS SAM CLASSIC THE SECOND ENCOUNTER\Sources\GLShaders\RenderSession.cpp18084318@@@std@@@2@XZ 1000aca0 f i RenderSession.obj
 0001:00009cd0       ?push_back@?$vector@V?$vector@URenderSession@?%C:\GAMES\STEAM\STEAMAPPS\COMMON\SERIOUS SAM CLASSIC THE SECOND ENCOUNTER\Sources\GLShaders\RenderSession.cpp18084318@@V?$allocator@URenderSession@?%C:\GAMES\STEAM\STEAMAPPS\COMMON\SERIOUS SAM CLASSIC THE SECOND ENCOUNTER\Sources\GLShaders\RenderSession.cpp18084318@@@std@@@std@@V?$allocator@V?$vector@URenderSession@?%C:\GAMES\STEAM\STEAMAPPS\COMMON\SERIOUS SAM CLASSIC THE SECOND ENCOUNTER\Sources\GLShaders\RenderSession.cpp18084318@@V?$allocator@URenderSession@?%C:\GAMES\STEAM\STEAMAPPS\COMMON\SERIOUS SAM CLASSIC THE SECOND ENCOUNTER\Sources\GLShaders\RenderSession.cpp18084318@@@std@@@std@@@2@@std@@QAEXABV?$vector@URenderSession@?%C:\GAMES\STEAM\STEAMAPPS\COMMON\SERIOUS SAM CLASSIC THE SECOND ENCOUNTER\Sources\GLShaders\RenderSession.cpp18084318@@V?$allocator@URenderSession@?%C:\GAMES\STEAM\STEAMAPPS\COMMON\SERIOUS SAM CLASSIC THE SECOND ENCOUNTER\Sources\GLShaders\RenderSession.cpp18084318@@@std@@@2@@Z 1000acd0 f i RenderSession.obj
 0001:00009d10       ?clear@?$vector@V?$vector@URenderSession@?%C:\GAMES\STEAM\STEAMAPPS\COMMON\SERIOUS SAM CLASSIC THE SECOND ENCOUNTER\Sources\GLShaders\RenderSession.cpp18084318@@V?$allocator@URenderSession@?%C:\GAMES\STEAM\STEAMAPPS\COMMON\SERIOUS SAM CLASSIC THE SECOND ENCOUNTER\Sources\GLShaders\RenderSession.cpp18084318@@@std@@@std@@V?$allocator@V?$vector@URenderSession@?%C:\GAMES\STEAM\STEAMAPPS\COMMON\SERIOUS SAM CLASSIC THE SECOND ENCOUNTER\Sources\GLShaders\RenderSession.cpp18084318@@V?$allocator@URenderSession@?%C:\GAMES\STEAM\STEAMAPPS\COMMON\SERIOUS SAM CLASSIC THE SECOND ENCOUNTER\Sources\GLShaders\RenderSession.cpp18084318@@@std@@@std@@@2@@std@@QAEXXZ 1000ad10 f i RenderSession.obj
 0001:00009d60       ??0?$map@KIU?$less@K@std@@V?$allocator@I@2@@std@@QAE@ABU?$less@K@1@ABV?$allocator@I@1@@Z 1000ad60 f i RenderSession.obj
 0001:00009da0       ?begin@?$map@KIU?$less@K@std@@V?$allocator@I@2@@std@@QAE?AViterator@?$_Tree@KU?$pair@$$CBKI@std@@U_Kfn@?$map@KIU?$less@K@std@@V?$allocator@I@2@@2@U?$less@K@2@V?$allocator@I@2@@2@XZ 1000ada0 f i RenderSession.obj
 0001:00009df0       ?end@?$map@KIU?$less@K@std@@V?$allocator@I@2@@std@@QAE?AViterator@?$_Tree@KU?$pair@$$CBKI@std@@U_Kfn@?$map@KIU?$less@K@std@@V?$allocator@I@2@@2@U?$less@K@2@V?$allocator@I@2@@2@XZ 1000adf0 f i RenderSession.obj
 0001:00009e40       ??A?$map@KIU?$less@K@std@@V?$allocator@I@2@@std@@QAEAAIABK@Z 1000ae40 f i RenderSession.obj
 0001:00009ec0       ?clear@?$map@KIU?$less@K@std@@V?$allocator@I@2@@std@@QAEXXZ 1000aec0 f i RenderSession.obj
 0001:00009ef0       ?find@?$map@KIU?$less@K@std@@V?$allocator@I@2@@std@@QAE?AViterator@?$_Tree@KU?$pair@$$CBKI@std@@U_Kfn@?$map@KIU?$less@K@std@@V?$allocator@I@2@@2@U?$less@K@2@V?$allocator@I@2@@2@ABK@Z 1000aef0 f i RenderSession.obj
 0001:00009f50       ??1?$_Tree@KU?$pair@$$CBKI@std@@U_Kfn@?$map@KIU?$less@K@std@@V?$allocator@I@2@@2@U?$less@K@2@V?$allocator@I@2@@std@@QAE@XZ 1000af50 f i RenderSession.obj
 0001:0000a090       ??0iterator@?$_Tree@KU?$pair@$$CBKI@std@@U_Kfn@?$map@KIU?$less@K@std@@V?$allocator@I@2@@2@U?$less@K@2@V?$allocator@I@2@@std@@QAE@XZ 1000b090 f i RenderSession.obj
 0001:0000a0c0       ??Citerator@?$_Tree@KU?$pair@$$CBKI@std@@U_Kfn@?$map@KIU?$less@K@std@@V?$allocator@I@2@@2@U?$less@K@2@V?$allocator@I@2@@std@@QBEPAU?$pair@$$CBKI@2@XZ 1000b0c0 f i RenderSession.obj
 0001:0000a0f0       ??Eiterator@?$_Tree@KU?$pair@$$CBKI@std@@U_Kfn@?$map@KIU?$less@K@std@@V?$allocator@I@2@@2@U?$less@K@2@V?$allocator@I@2@@std@@QAEAAV012@XZ 1000b0f0 f i RenderSession.obj
 0001:0000a120       ??9iterator@?$_Tree@KU?$pair@$$CBKI@std@@U_Kfn@?$map@KIU?$less@K@std@@V?$allocator@I@2@@2@U?$less@K@2@V?$allocator@I@2@@std@@QBE_NABV012@@Z 1000b120 f i RenderSession.obj
 0001:0000a170       ??0?$vector@URenderSession@?%C:\GAMES\STEAM\STEAMAPPS\COMMON\SERIOUS SAM CLASSIC THE SECOND ENCOUNTER\Sources\GLShaders\RenderSession.cpp18084318@@V?$allocator@URenderSession@?%C:\GAMES\STEAM\STEAMAPPS\COMMON\SERIOUS SAM CLASSIC THE SECOND ENCOUNTER\Sources\GLShaders\RenderSession.cpp18084318@@@std@@@std@@QAE@ABV?$allocator@URenderSession@?%C:\GAMES\STEAM\STEAMAPPS\COMMON\SERIOUS SAM CLASSIC THE SECOND ENCOUNTER\Sources\GLShaders\RenderSession.cpp18084318@@@1@@Z 1000b170 f i RenderSession.obj
 0001:0000a1c0       ??1?$vector@URenderSession@?%C:\GAMES\STEAM\STEAMAPPS\COMMON\SERIOUS SAM CLASSIC THE SECOND ENCOUNTER\Sources\GLShaders\RenderSession.cpp18084318@@V?$allocator@URenderSession@?%C:\GAMES\STEAM\STEAMAPPS\COMMON\SERIOUS SAM CLASSIC THE SECOND ENCOUNTER\Sources\GLShaders\RenderSession.cpp18084318@@@std@@@std@@QAE@XZ 1000b1c0 f i RenderSession.obj
 0001:0000a250       ?size@?$vector@URenderSession@?%C:\GAMES\STEAM\STEAMAPPS\COMMON\SERIOUS SAM CLASSIC THE SECOND ENCOUNTER\Sources\GLShaders\RenderSession.cpp18084318@@V?$allocator@URenderSession@?%C:\GAMES\STEAM\STEAMAPPS\COMMON\SERIOUS SAM CLASSIC THE SECOND ENCOUNTER\Sources\GLShaders\RenderSession.cpp18084318@@@std@@@std@@QBEIXZ 1000b250 f i RenderSession.obj
 0001:0000a2b0       ??A?$vector@URenderSession@?%C:\GAMES\STEAM\STEAMAPPS\COMMON\SERIOUS SAM CLASSIC THE SECOND ENCOUNTER\Sources\GLShaders\RenderSession.cpp18084318@@V?$allocator@URenderSession@?%C:\GAMES\STEAM\STEAMAPPS\COMMON\SERIOUS SAM CLASSIC THE SECOND ENCOUNTER\Sources\GLShaders\RenderSession.cpp18084318@@@std@@@std@@QAEAAURenderSession@?%C:\GAMES\STEAM\STEAMAPPS\COMMON\SERIOUS SAM CLASSIC THE SECOND ENCOUNTER\Sources\GLShaders\RenderSession.cpp18084318@@I@Z 1000b2b0 f i RenderSession.obj
 0001:0000a2f0       ?back@?$vector@URenderSession@?%C:\GAMES\STEAM\STEAMAPPS\COMMON\SERIOUS SAM CLASSIC THE SECOND ENCOUNTER\Sources\GLShaders\RenderSession.cpp18084318@@V?$allocator@URenderSession@?%C:\GAMES\STEAM\STEAMAPPS\COMMON\SERIOUS SAM CLASSIC THE SECOND ENCOUNTER\Sources\GLShaders\RenderSession.cpp18084318@@@std@@@std@@QAEAAURenderSession@?%C:\GAMES\STEAM\STEAMAPPS\COMMON\SERIOUS SAM CLASSIC THE SECOND ENCOUNTER\Sources\GLShaders\RenderSession.cpp18084318@@XZ 1000b2f0 f i RenderSession.obj
 0001:0000a320       ?push_back@?$vector@URenderSession@?%C:\GAMES\STEAM\STEAMAPPS\COMMON\SERIOUS SAM CLASSIC THE SECOND ENCOUNTER\Sources\GLShaders\RenderSession.cpp18084318@@V?$allocator@URenderSession@?%C:\GAMES\STEAM\STEAMAPPS\COMMON\SERIOUS SAM CLASSIC THE SECOND ENCOUNTER\Sources\GLShaders\RenderSession.cpp18084318@@@std@@@std@@QAEXABURenderSession@?%C:\GAMES\STEAM\STEAMAPPS\COMMON\SERIOUS SAM CLASSIC THE SECOND ENCOUNTER\Sources\GLShaders\RenderSession.cpp18084318@@@Z 1000b320 f i RenderSession.obj
 0001:0000a360       ??0?$vector@V?$basic_string@DU?$char_traits@D@std@@V?$allocator@D@2@@std@@V?$allocator@V?$basic_string@DU?$char_traits@D@std@@V?$allocator@D@2@@std@@@2@@std@@QAE@ABV?$allocator@V?$basic_string@DU?$char_traits@D@std@@V?$allocator@D@2@@std@@@1@@Z 1000b360 f i RenderSession.obj
 0001:0000a3b0       ??1?$vector@V?$basic_string@DU?$char_traits@D@std@@V?$allocator@D@2@@std@@V?$allocator@V?$basic_string@DU?$char_traits@D@std@@V?$allocator@D@2@@std@@@2@@std@@QAE@XZ 1000b3b0 f i RenderSession.obj
 0001:0000a440       ?reserve@?$vector@V?$basic_string@DU?$char_traits@D@std@@V?$allocator@D@2@@std@@V?$allocator@V?$basic_string@DU?$char_traits@D@std@@V?$allocator@D@2@@std@@@2@@std@@QAEXI@Z 1000b440 f i RenderSession.obj
 0001:0000a540       ?size@?$vector@V?$basic_string@DU?$char_traits@D@std@@V?$allocator@D@2@@std@@V?$allocator@V?$basic_string@DU?$char_traits@D@std@@V?$allocator@D@2@@std@@@2@@std@@QBEIXZ 1000b540 f i RenderSession.obj
 0001:0000a5a0       ?at@?$vector@V?$basic_string@DU?$char_traits@D@std@@V?$allocator@D@2@@std@@V?$allocator@V?$basic_string@DU?$char_traits@D@std@@V?$allocator@D@2@@std@@@2@@std@@QAEAAV?$basic_string@DU?$char_traits@D@std@@V?$allocator@D@2@@2@I@Z 1000b5a0 f i RenderSession.obj
 0001:0000a600       ?push_back@?$vector@V?$basic_string@DU?$char_traits@D@std@@V?$allocator@D@2@@std@@V?$allocator@V?$basic_string@DU?$char_traits@D@std@@V?$allocator@D@2@@std@@@2@@std@@QAEXABV?$basic_string@DU?$char_traits@D@std@@V?$allocator@D@2@@2@@Z 1000b600 f i RenderSession.obj
 0001:0000a640       ??C?$CStaticArrayIterator@UMeshInstance@@@@QAEPAUMeshInstance@@XZ 1000b640 f i RenderSession.obj
 0001:0000a680       ??C?$CStaticArrayIterator@UTextureInstance@@@@QAEPAUTextureInstance@@XZ 1000b680 f i RenderSession.obj
 0001:0000a6c0       ?deallocate@?$allocator@I@std@@QAEXPAXI@Z 1000b6c0 f i RenderSession.obj
 0001:0000a700       ?insert@?$vector@IV?$allocator@I@std@@@std@@QAEPAIPAIABI@Z 1000b700 f i RenderSession.obj
 0001:0000a770       ?insert@?$vector@IV?$allocator@I@std@@@std@@QAEXPAIIABI@Z 1000b770 f i RenderSession.obj
 0001:0000aa30       ?allocate@?$allocator@I@std@@QAEPAIIPBX@Z 1000ba30 f i RenderSession.obj
 0001:0000aa70       ?_Destroy@?$vector@IV?$allocator@I@std@@@std@@IAEXPAI0@Z 1000ba70 f i RenderSession.obj
 0001:0000aac0       ?_Ucopy@?$vector@IV?$allocator@I@std@@@std@@IAEPAIPBI0PAI@Z 1000bac0 f i RenderSession.obj
 0001:0000ab30       ?_Ufill@?$vector@IV?$allocator@I@std@@@std@@IAEXPAIIABI@Z 1000bb30 f i RenderSession.obj
 0001:0000ab90       ?_Xran@?$vector@IV?$allocator@I@std@@@std@@IBEXXZ 1000bb90 f i RenderSession.obj
 0001:0000ac50       ?begin@?$vector@UShaderTexture@ShaderSettings@@V?$allocator@UShaderTexture@ShaderSettings@@@std@@@std@@QBEPBUShaderTexture@ShaderSettings@@XZ 1000bc50 f i RenderSession.obj
 0001:0000ac70       ?_Xran@?$vector@UShaderTexture@ShaderSettings@@V?$allocator@UShaderTexture@ShaderSettings@@@std@@@std@@IBEXXZ 1000bc70 f i RenderSession.obj
 0001:0000ad30       ?begin@?$vector@UShaderUniform@ShaderSettings@@V?$allocator@UShaderUniform@ShaderSettings@@@std@@@std@@QBEPBUShaderUniform@ShaderSettings@@XZ 1000bd30 f i RenderSession.obj
 0001:0000ad50       ?_Xran@?$vector@UShaderUniform@ShaderSettings@@V?$allocator@UShaderUniform@ShaderSettings@@@std@@@std@@IBEXXZ 1000bd50 f i RenderSession.obj
 0001:0000ae10       ?capacity@?$vector@PAVCTextureObject@@V?$allocator@PAVCTextureObject@@@std@@@std@@QBEIXZ 1000be10 f i RenderSession.obj
 0001:0000ae70       ?begin@?$vector@PAVCTextureObject@@V?$allocator@PAVCTextureObject@@@std@@@std@@QAEPAPAVCTextureObject@@XZ 1000be70 f i RenderSession.obj
 0001:0000ae90       ?end@?$vector@PAVCTextureObject@@V?$allocator@PAVCTextureObject@@@std@@@std@@QAEPAPAVCTextureObject@@XZ 1000be90 f i RenderSession.obj
 0001:0000aeb0       ?insert@?$vector@PAVCTextureObject@@V?$allocator@PAVCTextureObject@@@std@@@std@@QAEPAPAVCTextureObject@@PAPAV3@ABQAV3@@Z 1000beb0 f i RenderSession.obj
 0001:0000af20       ?_Destroy@?$vector@PAVCTextureObject@@V?$allocator@PAVCTextureObject@@@std@@@std@@IAEXPAPAVCTextureObject@@0@Z 1000bf20 f i RenderSession.obj
 0001:0000af70       ?_Ucopy@?$vector@PAVCTextureObject@@V?$allocator@PAVCTextureObject@@@std@@@std@@IAEPAPAVCTextureObject@@PBQAV3@0PAPAV3@@Z 1000bf70 f i RenderSession.obj
 0001:0000afe0       ?_Xran@?$vector@PAVCTextureObject@@V?$allocator@PAVCTextureObject@@@std@@@std@@IBEXXZ 1000bfe0 f i RenderSession.obj
 0001:0000b0a0       ?allocate@?$allocator@PAVCTextureObject@@@std@@QAEPAPAVCTextureObject@@IPBX@Z 1000c0a0 f i RenderSession.obj
 0001:0000b0e0       ?deallocate@?$allocator@PAVCTextureObject@@@std@@QAEXPAXI@Z 1000c0e0 f i RenderSession.obj
 0001:0000b120       ?begin@?$vector@V?$vector@URenderSession@?%C:\GAMES\STEAM\STEAMAPPS\COMMON\SERIOUS SAM CLASSIC THE SECOND ENCOUNTER\Sources\GLShaders\RenderSession.cpp18084318@@V?$allocator@URenderSession@?%C:\GAMES\STEAM\STEAMAPPS\COMMON\SERIOUS SAM CLASSIC THE SECOND ENCOUNTER\Sources\GLShaders\RenderSession.cpp18084318@@@std@@@std@@V?$allocator@V?$vector@URenderSession@?%C:\GAMES\STEAM\STEAMAPPS\COMMON\SERIOUS SAM CLASSIC THE SECOND ENCOUNTER\Sources\GLShaders\RenderSession.cpp18084318@@V?$allocator@URenderSession@?%C:\GAMES\STEAM\STEAMAPPS\COMMON\SERIOUS SAM CLASSIC THE SECOND ENCOUNTER\Sources\GLShaders\RenderSession.cpp18084318@@@std@@@std@@@2@@std@@QAEPAV?$vector@URenderSession@?%C:\GAMES\STEAM\STEAMAPPS\COMMON\SERIOUS SAM CLASSIC THE SECOND ENCOUNTER\Sources\GLShaders\RenderSession.cpp18084318@@V?$allocator@URenderSession@?%C:\GAMES\STEAM\STEAMAPPS\COMMON\SERIOUS SAM CLASSIC THE SECOND ENCOUNTER\Sources\GLShaders\RenderSession.cpp18084318@@@std@@@2@XZ 1000c120 f i RenderSession.obj
 0001:0000b140       ?end@?$vector@V?$vector@URenderSession@?%C:\GAMES\STEAM\STEAMAPPS\COMMON\SERIOUS SAM CLASSIC THE SECOND ENCOUNTER\Sources\GLShaders\RenderSession.cpp18084318@@V?$allocator@URenderSession@?%C:\GAMES\STEAM\STEAMAPPS\COMMON\SERIOUS SAM CLASSIC THE SECOND ENCOUNTER\Sources\GLShaders\RenderSession.cpp18084318@@@std@@@std@@V?$allocator@V?$vector@URenderSession@?%C:\GAMES\STEAM\STEAMAPPS\COMMON\SERIOUS SAM CLASSIC THE SECOND ENCOUNTER\Sources\GLShaders\RenderSession.cpp18084318@@V?$allocator@URenderSession@?%C:\GAMES\STEAM\STEAMAPPS\COMMON\SERIOUS SAM CLASSIC THE SECOND ENCOUNTER\Sources\GLShaders\RenderSession.cpp18084318@@@std@@@std@@@2@@std@@QAEPAV?$vector@URenderSession@?%C:\GAMES\STEAM\STEAMAPPS\COMMON\SERIOUS SAM CLASSIC THE SECOND ENCOUNTER\Sources\GLShaders\RenderSession.cpp18084318@@V?$allocator@URenderSession@?%C:\GAMES\STEAM\STEAMAPPS\COMMON\SERIOUS SAM CLASSIC THE SECOND ENCOUNTER\Sources\GLShaders\RenderSession.cpp18084318@@@std@@@2@XZ 1000c140 f i RenderSession.obj
 0001:0000b160       ?insert@?$vector@V?$vector@URenderSession@?%C:\GAMES\STEAM\STEAMAPPS\COMMON\SERIOUS SAM CLASSIC THE SECOND ENCOUNTER\Sources\GLShaders\RenderSession.cpp18084318@@V?$allocator@URenderSession@?%C:\GAMES\STEAM\STEAMAPPS\COMMON\SERIOUS SAM CLASSIC THE SECOND ENCOUNTER\Sources\GLShaders\RenderSession.cpp18084318@@@std@@@std@@V?$allocator@V?$vector@URenderSession@?%C:\GAMES\STEAM\STEAMAPPS\COMMON\SERIOUS SAM CLASSIC THE SECOND ENCOUNTER\Sources\GLShaders\RenderSession.cpp18084318@@V?$allocator@URenderSession@?%C:\GAMES\STEAM\STEAMAPPS\COMMON\SERIOUS SAM CLASSIC THE SECOND ENCOUNTER\Sources\GLShaders\RenderSession.cpp18084318@@@std@@@std@@@2@@std@@QAEPAV?$vector@URenderSession@?%C:\GAMES\STEAM\STEAMAPPS\COMMON\SERIOUS SAM CLASSIC THE SECOND ENCOUNTER\Sources\GLShaders\RenderSession.cpp18084318@@V?$allocator@URenderSession@?%C:\GAMES\STEAM\STEAMAPPS\COMMON\SERIOUS SAM CLASSIC THE SECOND ENCOUNTER\Sources\GLShaders\RenderSession.cpp18084318@@@std@@@2@PAV32@ABV32@@Z 1000c160 f i RenderSession.obj
 0001:0000b1e0       ?erase@?$vector@V?$vector@URenderSession@?%C:\GAMES\STEAM\STEAMAPPS\COMMON\SERIOUS SAM CLASSIC THE SECOND ENCOUNTER\Sources\GLShaders\RenderSession.cpp18084318@@V?$allocator@URenderSession@?%C:\GAMES\STEAM\STEAMAPPS\COMMON\SERIOUS SAM CLASSIC THE SECOND ENCOUNTER\Sources\GLShaders\RenderSession.cpp18084318@@@std@@@std@@V?$allocator@V?$vector@URenderSession@?%C:\GAMES\STEAM\STEAMAPPS\COMMON\SERIOUS SAM CLASSIC THE SECOND ENCOUNTER\Sources\GLShaders\RenderSession.cpp18084318@@V?$allocator@URenderSession@?%C:\GAMES\STEAM\STEAMAPPS\COMMON\SERIOUS SAM CLASSIC THE SECOND ENCOUNTER\Sources\GLShaders\RenderSession.cpp18084318@@@std@@@std@@@2@@std@@QAEPAV?$vector@URenderSession@?%C:\GAMES\STEAM\STEAMAPPS\COMMON\SERIOUS SAM CLASSIC THE SECOND ENCOUNTER\Sources\GLShaders\RenderSession.cpp18084318@@V?$allocator@URenderSession@?%C:\GAMES\STEAM\STEAMAPPS\COMMON\SERIOUS SAM CLASSIC THE SECOND ENCOUNTER\Sources\GLShaders\RenderSession.cpp18084318@@@std@@@2@PAV32@0@Z 1000c1e0 f i RenderSession.obj
 0001:0000b260       ?_Destroy@?$vector@V?$vector@URenderSession@?%C:\GAMES\STEAM\STEAMAPPS\COMMON\SERIOUS SAM CLASSIC THE SECOND ENCOUNTER\Sources\GLShaders\RenderSession.cpp18084318@@V?$allocator@URenderSession@?%C:\GAMES\STEAM\STEAMAPPS\COMMON\SERIOUS SAM CLASSIC THE SECOND ENCOUNTER\Sources\GLShaders\RenderSession.cpp18084318@@@std@@@std@@V?$allocator@V?$vector@URenderSession@?%C:\GAMES\STEAM\STEAMAPPS\COMMON\SERIOUS SAM CLASSIC THE SECOND ENCOUNTER\Sources\GLShaders\RenderSession.cpp18084318@@V?$allocator@URenderSession@?%C:\GAMES\STEAM\STEAMAPPS\COMMON\SERIOUS SAM CLASSIC THE SECOND ENCOUNTER\Sources\GLShaders\RenderSession.cpp18084318@@@std@@@std@@@2@@std@@IAEXPAV?$vector@URenderSession@?%C:\GAMES\STEAM\STEAMAPPS\COMMON\SERIOUS SAM CLASSIC THE SECOND ENCOUNTER\Sources\GLShaders\RenderSession.cpp18084318@@V?$allocator@URenderSession@?%C:\GAMES\STEAM\STEAMAPPS\COMMON\SERIOUS SAM CLASSIC THE SECOND ENCOUNTER\Sources\GLShaders\RenderSession.cpp18084318@@@std@@@2@0@Z 1000c260 f i RenderSession.obj
 0001:0000b2b0       ?deallocate@?$allocator@V?$vector@URenderSession@?%C:\GAMES\STEAM\STEAMAPPS\COMMON\SERIOUS SAM CLASSIC THE SECOND ENCOUNTER\Sources\GLShaders\RenderSession.cpp18084318@@V?$allocator@URenderSession@?%C:\GAMES\STEAM\STEAMAPPS\COMMON\SERIOUS SAM CLASSIC THE SECOND ENCOUNTER\Sources\GLShaders\RenderSession.cpp18084318@@@std@@@std@@@std@@QAEXPAXI@Z 1000c2b0 f i RenderSession.obj
 0001:0000b2f0       ?insert@?$map@KIU?$less@K@std@@V?$allocator@I@2@@std@@QAE?AU?$pair@Viterator@?$_Tree@KU?$pair@$$CBKI@std@@U_Kfn@?$map@KIU?$less@K@std@@V?$allocator@I@2@@2@U?$less@K@2@V?$allocator@I@2@@std@@_N@2@ABU?$pair@$$CBKI@2@@Z 1000c2f0 f i RenderSession.obj
 0001:0000b380       ??0?$_Tree@KU?$pair@$$CBKI@std@@U_Kfn@?$map@KIU?$less@K@std@@V?$allocator@I@2@@2@U?$less@K@2@V?$allocator@I@2@@std@@QAE@ABU?$less@K@1@_NABV?$allocator@I@1@@Z 1000c380 f i RenderSession.obj
 0001:0000b3e0       ?begin@?$_Tree@KU?$pair@$$CBKI@std@@U_Kfn@?$map@KIU?$less@K@std@@V?$allocator@I@2@@2@U?$less@K@2@V?$allocator@I@2@@std@@QAE?AViterator@12@XZ 1000c3e0 f i RenderSession.obj
 0001:0000b440       ?end@?$_Tree@KU?$pair@$$CBKI@std@@U_Kfn@?$map@KIU?$less@K@std@@V?$allocator@I@2@@2@U?$less@K@2@V?$allocator@I@2@@std@@QAE?AViterator@12@XZ 1000c440 f i RenderSession.obj
 0001:0000b490       ?erase@?$_Tree@KU?$pair@$$CBKI@std@@U_Kfn@?$map@KIU?$less@K@std@@V?$allocator@I@2@@2@U?$less@K@2@V?$allocator@I@2@@std@@QAE?AViterator@12@V312@0@Z 1000c490 f i RenderSession.obj
 0001:0000b670       ?clear@?$_Tree@KU?$pair@$$CBKI@std@@U_Kfn@?$map@KIU?$less@K@std@@V?$allocator@I@2@@2@U?$less@K@2@V?$allocator@I@2@@std@@QAEXXZ 1000c670 f i RenderSession.obj
 0001:0000b6e0       ?find@?$_Tree@KU?$pair@$$CBKI@std@@U_Kfn@?$map@KIU?$less@K@std@@V?$allocator@I@2@@2@U?$less@K@2@V?$allocator@I@2@@std@@QAE?AViterator@12@ABK@Z 1000c6e0 f i RenderSession.obj
 0001:0000b7d0       ?_Freenode@?$_Tree@KU?$pair@$$CBKI@std@@U_Kfn@?$map@KIU?$less@K@std@@V?$allocator@I@2@@2@U?$less@K@2@V?$allocator@I@2@@std@@IAEXPAU_Node@12@@Z 1000c7d0 f i RenderSession.obj
 0001:0000b810       ??0?$pair@$$CBKI@std@@QAE@ABKABI@Z 1000c810 f i RenderSession.obj
 0001:0000b850       ??0const_iterator@?$_Tree@KU?$pair@$$CBKI@std@@U_Kfn@?$map@KIU?$less@K@std@@V?$allocator@I@2@@2@U?$less@K@2@V?$allocator@I@2@@std@@QAE@XZ 1000c850 f i RenderSession.obj
 0001:0000b870       ?_Inc@const_iterator@?$_Tree@KU?$pair@$$CBKI@std@@U_Kfn@?$map@KIU?$less@K@std@@V?$allocator@I@2@@2@U?$less@K@2@V?$allocator@I@2@@std@@QAEXXZ 1000c870 f i RenderSession.obj
 0001:0000b9c0       ??Diterator@?$_Tree@KU?$pair@$$CBKI@std@@U_Kfn@?$map@KIU?$less@K@std@@V?$allocator@I@2@@2@U?$less@K@2@V?$allocator@I@2@@std@@QBEAAU?$pair@$$CBKI@2@XZ 1000c9c0 f i RenderSession.obj
 0001:0000ba00       ??8iterator@?$_Tree@KU?$pair@$$CBKI@std@@U_Kfn@?$map@KIU?$less@K@std@@V?$allocator@I@2@@2@U?$less@K@2@V?$allocator@I@2@@std@@QBE_NABV012@@Z 1000ca00 f i RenderSession.obj
 0001:0000ba30       ?begin@?$vector@URenderSession@?%C:\GAMES\STEAM\STEAMAPPS\COMMON\SERIOUS SAM CLASSIC THE SECOND ENCOUNTER\Sources\GLShaders\RenderSession.cpp18084318@@V?$allocator@URenderSession@?%C:\GAMES\STEAM\STEAMAPPS\COMMON\SERIOUS SAM CLASSIC THE SECOND ENCOUNTER\Sources\GLShaders\RenderSession.cpp18084318@@@std@@@std@@QAEPAURenderSession@?%C:\GAMES\STEAM\STEAMAPPS\COMMON\SERIOUS SAM CLASSIC THE SECOND ENCOUNTER\Sources\GLShaders\RenderSession.cpp18084318@@XZ 1000ca30 f i RenderSession.obj
 0001:0000ba50       ?end@?$vector@URenderSession@?%C:\GAMES\STEAM\STEAMAPPS\COMMON\SERIOUS SAM CLASSIC THE SECOND ENCOUNTER\Sources\GLShaders\RenderSession.cpp18084318@@V?$allocator@URenderSession@?%C:\GAMES\STEAM\STEAMAPPS\COMMON\SERIOUS SAM CLASSIC THE SECOND ENCOUNTER\Sources\GLShaders\RenderSession.cpp18084318@@@std@@@std@@QAEPAURenderSession@?%C:\GAMES\STEAM\STEAMAPPS\COMMON\SERIOUS SAM CLASSIC THE SECOND ENCOUNTER\Sources\GLShaders\RenderSession.cpp18084318@@XZ 1000ca50 f i RenderSession.obj
 0001:0000ba70       ?insert@?$vector@URenderSession@?%C:\GAMES\STEAM\STEAMAPPS\COMMON\SERIOUS SAM CLASSIC THE SECOND ENCOUNTER\Sources\GLShaders\RenderSession.cpp18084318@@V?$allocator@URenderSession@?%C:\GAMES\STEAM\STEAMAPPS\COMMON\SERIOUS SAM CLASSIC THE SECOND ENCOUNTER\Sources\GLShaders\RenderSession.cpp18084318@@@std@@@std@@QAEPAURenderSession@?%C:\GAMES\STEAM\STEAMAPPS\COMMON\SERIOUS SAM CLASSIC THE SECOND ENCOUNTER\Sources\GLShaders\RenderSession.cpp18084318@@PAU34@ABU34@@Z 1000ca70 f i RenderSession.obj
 0001:0000baf0       ?_Destroy@?$vector@URenderSession@?%C:\GAMES\STEAM\STEAMAPPS\COMMON\SERIOUS SAM CLASSIC THE SECOND ENCOUNTER\Sources\GLShaders\RenderSession.cpp18084318@@V?$allocator@URenderSession@?%C:\GAMES\STEAM\STEAMAPPS\COMMON\SERIOUS SAM CLASSIC THE SECOND ENCOUNTER\Sources\GLShaders\RenderSession.cpp18084318@@@std@@@std@@IAEXPAURenderSession@?%C:\GAMES\STEAM\STEAMAPPS\COMMON\SERIOUS SAM CLASSIC THE SECOND ENCOUNTER\Sources\GLShaders\RenderSession.cpp18084318@@0@Z 1000caf0 f i RenderSession.obj
 0001:0000bb40       ?deallocate@?$allocator@URenderSession@?%C:\GAMES\STEAM\STEAMAPPS\COMMON\SERIOUS SAM CLASSIC THE SECOND ENCOUNTER\Sources\GLShaders\RenderSession.cpp18084318@@@std@@QAEXPAXI@Z 1000cb40 f i RenderSession.obj
 0001:0000bb80       ?capacity@?$vector@V?$basic_string@DU?$char_traits@D@std@@V?$allocator@D@2@@std@@V?$allocator@V?$basic_string@DU?$char_traits@D@std@@V?$allocator@D@2@@std@@@2@@std@@QBEIXZ 1000cb80 f i RenderSession.obj
 0001:0000bbe0       ?begin@?$vector@V?$basic_string@DU?$char_traits@D@std@@V?$allocator@D@2@@std@@V?$allocator@V?$basic_string@DU?$char_traits@D@std@@V?$allocator@D@2@@std@@@2@@std@@QAEPAV?$basic_string@DU?$char_traits@D@std@@V?$allocator@D@2@@2@XZ 1000cbe0 f i RenderSession.obj
 0001:0000bc00       ?end@?$vector@V?$basic_string@DU?$char_traits@D@std@@V?$allocator@D@2@@std@@V?$allocator@V?$basic_string@DU?$char_traits@D@std@@V?$allocator@D@2@@std@@@2@@std@@QAEPAV?$basic_string@DU?$char_traits@D@std@@V?$allocator@D@2@@2@XZ 1000cc00 f i RenderSession.obj
 0001:0000bc20       ?insert@?$vector@V?$basic_string@DU?$char_traits@D@std@@V?$allocator@D@2@@std@@V?$allocator@V?$basic_string@DU?$char_traits@D@std@@V?$allocator@D@2@@std@@@2@@std@@QAEPAV?$basic_string@DU?$char_traits@D@std@@V?$allocator@D@2@@2@PAV32@ABV32@@Z 1000cc20 f i RenderSession.obj
 0001:0000bca0       ?_Destroy@?$vector@V?$basic_string@DU?$char_traits@D@std@@V?$allocator@D@2@@std@@V?$allocator@V?$basic_string@DU?$char_traits@D@std@@V?$allocator@D@2@@std@@@2@@std@@IAEXPAV?$basic_string@DU?$char_traits@D@std@@V?$allocator@D@2@@2@0@Z 1000cca0 f i RenderSession.obj
 0001:0000bcf0       ?_Ucopy@?$vector@V?$basic_string@DU?$char_traits@D@std@@V?$allocator@D@2@@std@@V?$allocator@V?$basic_string@DU?$char_traits@D@std@@V?$allocator@D@2@@std@@@2@@std@@IAEPAV?$basic_string@DU?$char_traits@D@std@@V?$allocator@D@2@@2@PBV32@0PAV32@@Z 1000ccf0 f i RenderSession.obj
 0001:0000bd60       ?_Xran@?$vector@V?$basic_string@DU?$char_traits@D@std@@V?$allocator@D@2@@std@@V?$allocator@V?$basic_string@DU?$char_traits@D@std@@V?$allocator@D@2@@std@@@2@@std@@IBEXXZ 1000cd60 f i RenderSession.obj
 0001:0000be20       ?allocate@?$allocator@V?$basic_string@DU?$char_traits@D@std@@V?$allocator@D@2@@std@@@std@@QAEPAV?$basic_string@DU?$char_traits@D@std@@V?$allocator@D@2@@2@IPBX@Z 1000ce20 f i RenderSession.obj
 0001:0000be60       ?deallocate@?$allocator@V?$basic_string@DU?$char_traits@D@std@@V?$allocator@D@2@@std@@@std@@QAEXPAXI@Z 1000ce60 f i RenderSession.obj
 0001:0000bea0       ?construct@?$allocator@I@std@@QAEXPAIABI@Z 1000cea0 f i RenderSession.obj
 0001:0000bee0       ?destroy@?$allocator@I@std@@QAEXPAI@Z 1000cee0 f i RenderSession.obj
 0001:0000bf20       ?insert@?$vector@PAVCTextureObject@@V?$allocator@PAVCTextureObject@@@std@@@std@@QAEXPAPAVCTextureObject@@IABQAV3@@Z 1000cf20 f i RenderSession.obj
 0001:0000c1e0       ?construct@?$allocator@PAVCTextureObject@@@std@@QAEXPAPAVCTextureObject@@ABQAV3@@Z 1000d1e0 f i RenderSession.obj
 0001:0000c220       ?destroy@?$allocator@PAVCTextureObject@@@std@@QAEXPAPAVCTextureObject@@@Z 1000d220 f i RenderSession.obj
 0001:0000c260       ?insert@?$vector@V?$vector@URenderSession@?%C:\GAMES\STEAM\STEAMAPPS\COMMON\SERIOUS SAM CLASSIC THE SECOND ENCOUNTER\Sources\GLShaders\RenderSession.cpp18084318@@V?$allocator@URenderSession@?%C:\GAMES\STEAM\STEAMAPPS\COMMON\SERIOUS SAM CLASSIC THE SECOND ENCOUNTER\Sources\GLShaders\RenderSession.cpp18084318@@@std@@@std@@V?$allocator@V?$vector@URenderSession@?%C:\GAMES\STEAM\STEAMAPPS\COMMON\SERIOUS SAM CLASSIC THE SECOND ENCOUNTER\Sources\GLShaders\RenderSession.cpp18084318@@V?$allocator@URenderSession@?%C:\GAMES\STEAM\STEAMAPPS\COMMON\SERIOUS SAM CLASSIC THE SECOND ENCOUNTER\Sources\GLShaders\RenderSession.cpp18084318@@@std@@@std@@@2@@std@@QAEXPAV?$vector@URenderSession@?%C:\GAMES\STEAM\STEAMAPPS\COMMON\SERIOUS SAM CLASSIC THE SECOND ENCOUNTER\Sources\GLShaders\RenderSession.cpp18084318@@V?$allocator@URenderSession@?%C:\GAMES\STEAM\STEAMAPPS\COMMON\SERIOUS SAM CLASSIC THE SECOND ENCOUNTER\Sources\GLShaders\RenderSession.cpp18084318@@@std@@@2@IABV32@@Z 1000d260 f i RenderSession.obj
 0001:0000c540       ?destroy@?$allocator@V?$vector@URenderSession@?%C:\GAMES\STEAM\STEAMAPPS\COMMON\SERIOUS SAM CLASSIC THE SECOND ENCOUNTER\Sources\GLShaders\RenderSession.cpp18084318@@V?$allocator@URenderSession@?%C:\GAMES\STEAM\STEAMAPPS\COMMON\SERIOUS SAM CLASSIC THE SECOND ENCOUNTER\Sources\GLShaders\RenderSession.cpp18084318@@@std@@@std@@@std@@QAEXPAV?$vector@URenderSession@?%C:\GAMES\STEAM\STEAMAPPS\COMMON\SERIOUS SAM CLASSIC THE SECOND ENCOUNTER\Sources\GLShaders\RenderSession.cpp18084318@@V?$allocator@URenderSession@?%C:\GAMES\STEAM\STEAMAPPS\COMMON\SERIOUS SAM CLASSIC THE SECOND ENCOUNTER\Sources\GLShaders\RenderSession.cpp18084318@@@std@@@2@@Z 1000d540 f i RenderSession.obj
 0001:0000c580       ??R?$less@K@std@@QBE_NABK0@Z 1000d580 f i RenderSession.obj
 0001:0000c5b0       ?_Key@?$_Tree@KU?$pair@$$CBKI@std@@U_Kfn@?$map@KIU?$less@K@std@@V?$allocator@I@2@@2@U?$less@K@2@V?$allocator@I@2@@std@@KAABKPAU_Node@12@@Z 1000d5b0 f i RenderSession.obj
 0001:0000c5f0       ?_Parent@?$_Tree@KU?$pair@$$CBKI@std@@U_Kfn@?$map@KIU?$less@K@std@@V?$allocator@I@2@@2@U?$less@K@2@V?$allocator@I@2@@std@@KAAAPAU_Node@12@PAU312@@Z 1000d5f0 f i RenderSession.obj
 0001:0000c600       ?_Right@?$_Tree@KU?$pair@$$CBKI@std@@U_Kfn@?$map@KIU?$less@K@std@@V?$allocator@I@2@@2@U?$less@K@2@V?$allocator@I@2@@std@@KAAAPAU_Node@12@PAU312@@Z 1000d600 f i RenderSession.obj
 0001:0000c610       ?_Value@?$_Tree@KU?$pair@$$CBKI@std@@U_Kfn@?$map@KIU?$less@K@std@@V?$allocator@I@2@@2@U?$less@K@2@V?$allocator@I@2@@std@@KAAAU?$pair@$$CBKI@2@PAU_Node@12@@Z 1000d610 f i RenderSession.obj
 0001:0000c620       ?size@?$_Tree@KU?$pair@$$CBKI@std@@U_Kfn@?$map@KIU?$less@K@std@@V?$allocator@I@2@@2@U?$less@K@2@V?$allocator@I@2@@std@@QBEIXZ 1000d620 f i RenderSession.obj
 0001:0000c640       ?insert@?$_Tree@KU?$pair@$$CBKI@std@@U_Kfn@?$map@KIU?$less@K@std@@V?$allocator@I@2@@2@U?$less@K@2@V?$allocator@I@2@@std@@QAE?AU?$pair@Viterator@?$_Tree@KU?$pair@$$CBKI@std@@U_Kfn@?$map@KIU?$less@K@std@@V?$allocator@I@2@@2@U?$less@K@2@V?$allocator@I@2@@std@@_N@2@ABU?$pair@$$CBKI@2@@Z 1000d640 f i RenderSession.obj
 0001:0000c950       ?erase@?$_Tree@KU?$pair@$$CBKI@std@@U_Kfn@?$map@KIU?$less@K@std@@V?$allocator@I@2@@2@U?$less@K@2@V?$allocator@I@2@@std@@QAE?AViterator@12@V312@@Z 1000d950 f i RenderSession.obj
 0001:0000d400       ?lower_bound@?$_Tree@KU?$pair@$$CBKI@std@@U_Kfn@?$map@KIU?$less@K@std@@V?$allocator@I@2@@2@U?$less@K@2@V?$allocator@I@2@@std@@QAE?AViterator@12@ABK@Z 1000e400 f i RenderSession.obj
 0001:0000d460       ?_Erase@?$_Tree@KU?$pair@$$CBKI@std@@U_Kfn@?$map@KIU?$less@K@std@@V?$allocator@I@2@@2@U?$less@K@2@V?$allocator@I@2@@std@@IAEXPAU_Node@12@@Z 1000e460 f i RenderSession.obj
 0001:0000d580       ?_Init@?$_Tree@KU?$pair@$$CBKI@std@@U_Kfn@?$map@KIU?$less@K@std@@V?$allocator@I@2@@2@U?$less@K@2@V?$allocator@I@2@@std@@IAEXXZ 1000e580 f i RenderSession.obj
 0001:0000d6d0       ?_Lmost@?$_Tree@KU?$pair@$$CBKI@std@@U_Kfn@?$map@KIU?$less@K@std@@V?$allocator@I@2@@2@U?$less@K@2@V?$allocator@I@2@@std@@IAEAAPAU_Node@12@XZ 1000e6d0 f i RenderSession.obj
 0001:0000d710       ?_Min@?$_Tree@KU?$pair@$$CBKI@std@@U_Kfn@?$map@KIU?$less@K@std@@V?$allocator@I@2@@2@U?$less@K@2@V?$allocator@I@2@@std@@KAPAU_Node@12@PAU312@@Z 1000e710 f i RenderSession.obj
 0001:0000d7e0       ?_Rmost@?$_Tree@KU?$pair@$$CBKI@std@@U_Kfn@?$map@KIU?$less@K@std@@V?$allocator@I@2@@2@U?$less@K@2@V?$allocator@I@2@@std@@IAEAAPAU_Node@12@XZ 1000e7e0 f i RenderSession.obj
 0001:0000d820       ?_Root@?$_Tree@KU?$pair@$$CBKI@std@@U_Kfn@?$map@KIU?$less@K@std@@V?$allocator@I@2@@2@U?$less@K@2@V?$allocator@I@2@@std@@IAEAAPAU_Node@12@XZ 1000e820 f i RenderSession.obj
 0001:0000d860       ?_Mynode@const_iterator@?$_Tree@KU?$pair@$$CBKI@std@@U_Kfn@?$map@KIU?$less@K@std@@V?$allocator@I@2@@2@U?$less@K@2@V?$allocator@I@2@@std@@QBEPAU_Node@23@XZ 1000e860 f i RenderSession.obj
 0001:0000d880       ??0iterator@?$_Tree@KU?$pair@$$CBKI@std@@U_Kfn@?$map@KIU?$less@K@std@@V?$allocator@I@2@@2@U?$less@K@2@V?$allocator@I@2@@std@@QAE@PAU_Node@12@@Z 1000e880 f i RenderSession.obj
 0001:0000d8c0       ??Eiterator@?$_Tree@KU?$pair@$$CBKI@std@@U_Kfn@?$map@KIU?$less@K@std@@V?$allocator@I@2@@2@U?$less@K@2@V?$allocator@I@2@@std@@QAE?AV012@H@Z 1000e8c0 f i RenderSession.obj
 0001:0000d920       ?insert@?$vector@URenderSession@?%C:\GAMES\STEAM\STEAMAPPS\COMMON\SERIOUS SAM CLASSIC THE SECOND ENCOUNTER\Sources\GLShaders\RenderSession.cpp18084318@@V?$allocator@URenderSession@?%C:\GAMES\STEAM\STEAMAPPS\COMMON\SERIOUS SAM CLASSIC THE SECOND ENCOUNTER\Sources\GLShaders\RenderSession.cpp18084318@@@std@@@std@@QAEXPAURenderSession@?%C:\GAMES\STEAM\STEAMAPPS\COMMON\SERIOUS SAM CLASSIC THE SECOND ENCOUNTER\Sources\GLShaders\RenderSession.cpp18084318@@IABU34@@Z 1000e920 f i RenderSession.obj
 0001:0000dc00       ?destroy@?$allocator@URenderSession@?%C:\GAMES\STEAM\STEAMAPPS\COMMON\SERIOUS SAM CLASSIC THE SECOND ENCOUNTER\Sources\GLShaders\RenderSession.cpp18084318@@@std@@QAEXPAURenderSession@?%C:\GAMES\STEAM\STEAMAPPS\COMMON\SERIOUS SAM CLASSIC THE SECOND ENCOUNTER\Sources\GLShaders\RenderSession.cpp18084318@@@Z 1000ec00 f i RenderSession.obj
 0001:0000dc40       ?insert@?$vector@V?$basic_string@DU?$char_traits@D@std@@V?$allocator@D@2@@std@@V?$allocator@V?$basic_string@DU?$char_traits@D@std@@V?$allocator@D@2@@std@@@2@@std@@QAEXPAV?$basic_string@DU?$char_traits@D@std@@V?$allocator@D@2@@2@IABV32@@Z 1000ec40 f i RenderSession.obj
 0001:0000df20       ?construct@?$allocator@V?$basic_string@DU?$char_traits@D@std@@V?$allocator@D@2@@std@@@std@@QAEXPAV?$basic_string@DU?$char_traits@D@std@@V?$allocator@D@2@@2@ABV32@@Z 1000ef20 f i RenderSession.obj
 0001:0000df60       ?destroy@?$allocator@V?$basic_string@DU?$char_traits@D@std@@V?$allocator@D@2@@std@@@std@@QAEXPAV?$basic_string@DU?$char_traits@D@std@@V?$allocator@D@2@@2@@Z 1000ef60 f i RenderSession.obj
 0001:0000dfa0       ??0?$pair@Viterator@?$_Tree@KU?$pair@$$CBKI@std@@U_Kfn@?$map@KIU?$less@K@std@@V?$allocator@I@2@@2@U?$less@K@2@V?$allocator@I@2@@std@@_N@std@@QAE@ABViterator@?$_Tree@KU?$pair@$$CBKI@std@@U_Kfn@?$map@KIU?$less@K@std@@V?$allocator@I@2@@2@U?$less@K@2@V?$allocator@I@2@@1@AB_N@Z 1000efa0 f i RenderSession.obj
 0001:0000dfe0       ?_Ufill@?$vector@PAVCTextureObject@@V?$allocator@PAVCTextureObject@@@std@@@std@@IAEXPAPAVCTextureObject@@IABQAV3@@Z 1000efe0 f i RenderSession.obj
 0001:0000e040       ?_Ucopy@?$vector@V?$vector@URenderSession@?%C:\GAMES\STEAM\STEAMAPPS\COMMON\SERIOUS SAM CLASSIC THE SECOND ENCOUNTER\Sources\GLShaders\RenderSession.cpp18084318@@V?$allocator@URenderSession@?%C:\GAMES\STEAM\STEAMAPPS\COMMON\SERIOUS SAM CLASSIC THE SECOND ENCOUNTER\Sources\GLShaders\RenderSession.cpp18084318@@@std@@@std@@V?$allocator@V?$vector@URenderSession@?%C:\GAMES\STEAM\STEAMAPPS\COMMON\SERIOUS SAM CLASSIC THE SECOND ENCOUNTER\Sources\GLShaders\RenderSession.cpp18084318@@V?$allocator@URenderSession@?%C:\GAMES\STEAM\STEAMAPPS\COMMON\SERIOUS SAM CLASSIC THE SECOND ENCOUNTER\Sources\GLShaders\RenderSession.cpp18084318@@@std@@@std@@@2@@std@@IAEPAV?$vector@URenderSession@?%C:\GAMES\STEAM\STEAMAPPS\COMMON\SERIOUS SAM CLASSIC THE SECOND ENCOUNTER\Sources\GLShaders\RenderSession.cpp18084318@@V?$allocator@URenderSession@?%C:\GAMES\STEAM\STEAMAPPS\COMMON\SERIOUS SAM CLASSIC THE SECOND ENCOUNTER\Sources\GLShaders\RenderSession.cpp18084318@@@std@@@2@PBV32@0PAV32@@Z 1000f040 f i RenderSession.obj
 0001:0000e0b0       ?_Ufill@?$vector@V?$vector@URenderSession@?%C:\GAMES\STEAM\STEAMAPPS\COMMON\SERIOUS SAM CLASSIC THE SECOND ENCOUNTER\Sources\GLShaders\RenderSession.cpp18084318@@V?$allocator@URenderSession@?%C:\GAMES\STEAM\STEAMAPPS\COMMON\SERIOUS SAM CLASSIC THE SECOND ENCOUNTER\Sources\GLShaders\RenderSession.cpp18084318@@@std@@@std@@V?$allocator@V?$vector@URenderSession@?%C:\GAMES\STEAM\STEAMAPPS\COMMON\SERIOUS SAM CLASSIC THE SECOND ENCOUNTER\Sources\GLShaders\RenderSession.cpp18084318@@V?$allocator@URenderSession@?%C:\GAMES\STEAM\STEAMAPPS\COMMON\SERIOUS SAM CLASSIC THE SECOND ENCOUNTER\Sources\GLShaders\RenderSession.cpp18084318@@@std@@@std@@@2@@std@@IAEXPAV?$vector@URenderSession@?%C:\GAMES\STEAM\STEAMAPPS\COMMON\SERIOUS SAM CLASSIC THE SECOND ENCOUNTER\Sources\GLShaders\RenderSession.cpp18084318@@V?$allocator@URenderSession@?%C:\GAMES\STEAM\STEAMAPPS\COMMON\SERIOUS SAM CLASSIC THE SECOND ENCOUNTER\Sources\GLShaders\RenderSession.cpp18084318@@@std@@@2@IABV32@@Z 1000f0b0 f i RenderSession.obj
 0001:0000e110       ?allocate@?$allocator@V?$vector@URenderSession@?%C:\GAMES\STEAM\STEAMAPPS\COMMON\SERIOUS SAM CLASSIC THE SECOND ENCOUNTER\Sources\GLShaders\RenderSession.cpp18084318@@V?$allocator@URenderSession@?%C:\GAMES\STEAM\STEAMAPPS\COMMON\SERIOUS SAM CLASSIC THE SECOND ENCOUNTER\Sources\GLShaders\RenderSession.cpp18084318@@@std@@@std@@@std@@QAEPAV?$vector@URenderSession@?%C:\GAMES\STEAM\STEAMAPPS\COMMON\SERIOUS SAM CLASSIC THE SECOND ENCOUNTER\Sources\GLShaders\RenderSession.cpp18084318@@V?$allocator@URenderSession@?%C:\GAMES\STEAM\STEAMAPPS\COMMON\SERIOUS SAM CLASSIC THE SECOND ENCOUNTER\Sources\GLShaders\RenderSession.cpp18084318@@@std@@@2@IPBX@Z 1000f110 f i RenderSession.obj
 0001:0000e150       ??R_Kfn@?$map@KIU?$less@K@std@@V?$allocator@I@2@@std@@QBEABKABU?$pair@$$CBKI@2@@Z 1000f150 f i RenderSession.obj
 0001:0000e170       ?_Color@?$_Tree@KU?$pair@$$CBKI@std@@U_Kfn@?$map@KIU?$less@K@std@@V?$allocator@I@2@@2@U?$less@K@2@V?$allocator@I@2@@std@@KAAAW4_Redbl@12@PAU_Node@12@@Z 1000f170 f i RenderSession.obj
 0001:0000e180       ?_Left@?$_Tree@KU?$pair@$$CBKI@std@@U_Kfn@?$map@KIU?$less@K@std@@V?$allocator@I@2@@2@U?$less@K@2@V?$allocator@I@2@@std@@KAAAPAU_Node@12@PAU312@@Z 1000f180 f i RenderSession.obj
 0001:0000e190       ?_Insert@?$_Tree@KU?$pair@$$CBKI@std@@U_Kfn@?$map@KIU?$less@K@std@@V?$allocator@I@2@@2@U?$less@K@2@V?$allocator@I@2@@std@@IAE?AViterator@12@PAU_Node@12@0ABU?$pair@$$CBKI@2@@Z 1000f190 f i RenderSession.obj
 0001:0000e7d0       ?_Lbound@?$_Tree@KU?$pair@$$CBKI@std@@U_Kfn@?$map@KIU?$less@K@std@@V?$allocator@I@2@@2@U?$less@K@2@V?$allocator@I@2@@std@@IBEPAU_Node@12@ABK@Z 1000f7d0 f i RenderSession.obj
 0001:0000e910       ?_Lrotate@?$_Tree@KU?$pair@$$CBKI@std@@U_Kfn@?$map@KIU?$less@K@std@@V?$allocator@I@2@@2@U?$less@K@2@V?$allocator@I@2@@std@@IAEXPAU_Node@12@@Z 1000f910 f i RenderSession.obj
 0001:0000eb10       ?_Max@?$_Tree@KU?$pair@$$CBKI@std@@U_Kfn@?$map@KIU?$less@K@std@@V?$allocator@I@2@@2@U?$less@K@2@V?$allocator@I@2@@std@@KAPAU_Node@12@PAU312@@Z 1000fb10 f i RenderSession.obj
 0001:0000ebe0       ?_Rrotate@?$_Tree@KU?$pair@$$CBKI@std@@U_Kfn@?$map@KIU?$less@K@std@@V?$allocator@I@2@@2@U?$less@K@2@V?$allocator@I@2@@std@@IAEXPAU_Node@12@@Z 1000fbe0 f i RenderSession.obj
 0001:0000ede0       ?_Buynode@?$_Tree@KU?$pair@$$CBKI@std@@U_Kfn@?$map@KIU?$less@K@std@@V?$allocator@I@2@@2@U?$less@K@2@V?$allocator@I@2@@std@@IAEPAU_Node@12@PAU312@W4_Redbl@12@@Z 1000fde0 f i RenderSession.obj
 0001:0000ee50       ?_Destval@?$_Tree@KU?$pair@$$CBKI@std@@U_Kfn@?$map@KIU?$less@K@std@@V?$allocator@I@2@@2@U?$less@K@2@V?$allocator@I@2@@std@@IAEXPAU?$pair@$$CBKI@2@@Z 1000fe50 f i RenderSession.obj
 0001:0000ee90       ??0const_iterator@?$_Tree@KU?$pair@$$CBKI@std@@U_Kfn@?$map@KIU?$less@K@std@@V?$allocator@I@2@@2@U?$less@K@2@V?$allocator@I@2@@std@@QAE@PAU_Node@12@@Z 1000fe90 f i RenderSession.obj
 0001:0000eec0       ??Fiterator@?$_Tree@KU?$pair@$$CBKI@std@@U_Kfn@?$map@KIU?$less@K@std@@V?$allocator@I@2@@2@U?$less@K@2@V?$allocator@I@2@@std@@QAEAAV012@XZ 1000fec0 f i RenderSession.obj
 0001:0000eef0       ?_Ucopy@?$vector@URenderSession@?%C:\GAMES\STEAM\STEAMAPPS\COMMON\SERIOUS SAM CLASSIC THE SECOND ENCOUNTER\Sources\GLShaders\RenderSession.cpp18084318@@V?$allocator@URenderSession@?%C:\GAMES\STEAM\STEAMAPPS\COMMON\SERIOUS SAM CLASSIC THE SECOND ENCOUNTER\Sources\GLShaders\RenderSession.cpp18084318@@@std@@@std@@IAEPAURenderSession@?%C:\GAMES\STEAM\STEAMAPPS\COMMON\SERIOUS SAM CLASSIC THE SECOND ENCOUNTER\Sources\GLShaders\RenderSession.cpp18084318@@PBU34@0PAU34@@Z 1000fef0 f i RenderSession.obj
 0001:0000ef60       ?_Ufill@?$vector@URenderSession@?%C:\GAMES\STEAM\STEAMAPPS\COMMON\SERIOUS SAM CLASSIC THE SECOND ENCOUNTER\Sources\GLShaders\RenderSession.cpp18084318@@V?$allocator@URenderSession@?%C:\GAMES\STEAM\STEAMAPPS\COMMON\SERIOUS SAM CLASSIC THE SECOND ENCOUNTER\Sources\GLShaders\RenderSession.cpp18084318@@@std@@@std@@IAEXPAURenderSession@?%C:\GAMES\STEAM\STEAMAPPS\COMMON\SERIOUS SAM CLASSIC THE SECOND ENCOUNTER\Sources\GLShaders\RenderSession.cpp18084318@@IABU34@@Z 1000ff60 f i RenderSession.obj
 0001:0000efc0       ?allocate@?$allocator@URenderSession@?%C:\GAMES\STEAM\STEAMAPPS\COMMON\SERIOUS SAM CLASSIC THE SECOND ENCOUNTER\Sources\GLShaders\RenderSession.cpp18084318@@@std@@QAEPAURenderSession@?%C:\GAMES\STEAM\STEAMAPPS\COMMON\SERIOUS SAM CLASSIC THE SECOND ENCOUNTER\Sources\GLShaders\RenderSession.cpp18084318@@IPBX@Z 1000ffc0 f i RenderSession.obj
 0001:0000f000       ?_Ufill@?$vector@V?$basic_string@DU?$char_traits@D@std@@V?$allocator@D@2@@std@@V?$allocator@V?$basic_string@DU?$char_traits@D@std@@V?$allocator@D@2@@std@@@2@@std@@IAEXPAV?$basic_string@DU?$char_traits@D@std@@V?$allocator@D@2@@2@IABV32@@Z 10010000 f i RenderSession.obj
 0001:0000f060       ?_Charalloc@?$allocator@I@std@@QAEPADI@Z 10010060 f i RenderSession.obj
 0001:0000f0a0       ?construct@?$allocator@V?$vector@URenderSession@?%C:\GAMES\STEAM\STEAMAPPS\COMMON\SERIOUS SAM CLASSIC THE SECOND ENCOUNTER\Sources\GLShaders\RenderSession.cpp18084318@@V?$allocator@URenderSession@?%C:\GAMES\STEAM\STEAMAPPS\COMMON\SERIOUS SAM CLASSIC THE SECOND ENCOUNTER\Sources\GLShaders\RenderSession.cpp18084318@@@std@@@std@@@std@@QAEXPAV?$vector@URenderSession@?%C:\GAMES\STEAM\STEAMAPPS\COMMON\SERIOUS SAM CLASSIC THE SECOND ENCOUNTER\Sources\GLShaders\RenderSession.cpp18084318@@V?$allocator@URenderSession@?%C:\GAMES\STEAM\STEAMAPPS\COMMON\SERIOUS SAM CLASSIC THE SECOND ENCOUNTER\Sources\GLShaders\RenderSession.cpp18084318@@@std@@@2@ABV32@@Z 100100a0 f i RenderSession.obj
 0001:0000f0e0       ?_Root@?$_Tree@KU?$pair@$$CBKI@std@@U_Kfn@?$map@KIU?$less@K@std@@V?$allocator@I@2@@2@U?$less@K@2@V?$allocator@I@2@@std@@IBEAAPAU_Node@12@XZ 100100e0 f i RenderSession.obj
 0001:0000f120       ?_Consval@?$_Tree@KU?$pair@$$CBKI@std@@U_Kfn@?$map@KIU?$less@K@std@@V?$allocator@I@2@@2@U?$less@K@2@V?$allocator@I@2@@std@@IAEXPAU?$pair@$$CBKI@2@ABU32@@Z 10010120 f i RenderSession.obj
 0001:0000f160       ?_Dec@const_iterator@?$_Tree@KU?$pair@$$CBKI@std@@U_Kfn@?$map@KIU?$less@K@std@@V?$allocator@I@2@@2@U?$less@K@2@V?$allocator@I@2@@std@@QAEXXZ 10010160 f i RenderSession.obj
 0001:0000f2f0       ?construct@?$allocator@URenderSession@?%C:\GAMES\STEAM\STEAMAPPS\COMMON\SERIOUS SAM CLASSIC THE SECOND ENCOUNTER\Sources\GLShaders\RenderSession.cpp18084318@@@std@@QAEXPAURenderSession@?%C:\GAMES\STEAM\STEAMAPPS\COMMON\SERIOUS SAM CLASSIC THE SECOND ENCOUNTER\Sources\GLShaders\RenderSession.cpp18084318@@ABU34@@Z 100102f0 f i RenderSession.obj
 0001:0000f330       ??0?$Matrix@M$02$02@@QAE@XZ 10010330 f i RenderSession.obj
 0001:0000f3d0       ??R?$Matrix@M$02$02@@QAEAAMHH@Z 100103d0 f i RenderSession.obj
 0001:0000f4b0       ??0?$Vector@M$02@@QAE@MMM@Z 100104b0 f i RenderSession.obj
 0001:0000f590       ??R?$Vector@M$02@@QBEABMH@Z 10010590 f i RenderSession.obj
 0001:0000f650       ??R?$Vector@M$02@@QAEAAMH@Z 10010650 f i RenderSession.obj
 0001:0000f710       ??R?$Vector@M$01@@QAEAAMH@Z 10010710 f i RenderSession.obj
 0001:0000f7d0       ??A?$CStaticArray@UTextureInstance@@@@QAEAAUTextureInstance@@J@Z 100107d0 f i RenderSession.obj
 0001:0000f8e0       ??A?$CStaticArray@UMeshInstance@@@@QAEAAUMeshInstance@@J@Z 100108e0 f i RenderSession.obj
 0001:0000f9f0       ??0?$CStaticArrayIterator@UMeshInstance@@@@QAE@AAV?$CStaticArray@UMeshInstance@@@@@Z 100109f0 f i RenderSession.obj
 0001:0000fa30       ??1?$CStaticArrayIterator@UMeshInstance@@@@QAE@XZ 10010a30 f i RenderSession.obj
 0001:0000fa60       ?MoveToNext@?$CStaticArrayIterator@UMeshInstance@@@@QAEXXZ 10010a60 f i RenderSession.obj
 0001:0000fb20       ?IsPastEnd@?$CStaticArrayIterator@UMeshInstance@@@@QAEHXZ 10010b20 f i RenderSession.obj
 0001:0000fbe0       ??0?$CStaticArrayIterator@UTextureInstance@@@@QAE@AAV?$CStaticArray@UTextureInstance@@@@@Z 10010be0 f i RenderSession.obj
 0001:0000fc20       ??1?$CStaticArrayIterator@UTextureInstance@@@@QAE@XZ 10010c20 f i RenderSession.obj
 0001:0000fc50       ?MoveToNext@?$CStaticArrayIterator@UTextureInstance@@@@QAEXXZ 10010c50 f i RenderSession.obj
 0001:0000fd10       ?IsPastEnd@?$CStaticArrayIterator@UTextureInstance@@@@QAEHXZ 10010d10 f i RenderSession.obj
 0001:0000fdd0       ?_Allocate@std@@YAPAIHPAI@Z 10010dd0 f i RenderSession.obj
 0001:0000fe10       ?fill@std@@YAXPAI0ABI@Z    10010e10 f i RenderSession.obj
 0001:0000fe40       ?copy_backward@std@@YAPAIPAI00@Z 10010e40 f i RenderSession.obj
 0001:0000fe80       ?_Allocate@std@@YAPAPAVCTextureObject@@HPAPAV2@@Z 10010e80 f i RenderSession.obj
 0001:0000fec0       ?copy@std@@YAPAV?$vector@URenderSession@?%C:\GAMES\STEAM\STEAMAPPS\COMMON\SERIOUS SAM CLASSIC THE SECOND ENCOUNTER\Sources\GLShaders\RenderSession.cpp18084318@@V?$allocator@URenderSession@?%C:\GAMES\STEAM\STEAMAPPS\COMMON\SERIOUS SAM CLASSIC THE SECOND ENCOUNTER\Sources\GLShaders\RenderSession.cpp18084318@@@std@@@1@PAV21@00@Z 10010ec0 f i RenderSession.obj
 0001:0000ff10       ?_Allocate@std@@YAPAV?$basic_string@DU?$char_traits@D@std@@V?$allocator@D@2@@1@HPAV21@@Z 10010f10 f i RenderSession.obj
 0001:0000ff50       ?_Construct@std@@YAXPAIABI@Z 10010f50 f i RenderSession.obj
 0001:0000ffc0       ??2@YAPAXIPAX@Z            10010fc0 f i RenderSession.obj
 0001:0000ffd0       ?_Destroy@std@@YAXPAI@Z    10010fd0 f i RenderSession.obj
 0001:0000ffe0       ?fill@std@@YAXPAPAVCTextureObject@@0ABQAV2@@Z 10010fe0 f i RenderSession.obj
 0001:00010010       ?copy_backward@std@@YAPAPAVCTextureObject@@PAPAV2@00@Z 10011010 f i RenderSession.obj
 0001:00010050       ?_Construct@std@@YAXPAPAVCTextureObject@@ABQAV2@@Z 10011050 f i RenderSession.obj
 0001:000100c0       ?_Destroy@std@@YAXPAPAVCTextureObject@@@Z 100110c0 f i RenderSession.obj
 0001:000100d0       ?fill@std@@YAXPAV?$vector@URenderSession@?%C:\GAMES\STEAM\STEAMAPPS\COMMON\SERIOUS SAM CLASSIC THE SECOND ENCOUNTER\Sources\GLShaders\RenderSession.cpp18084318@@V?$allocator@URenderSession@?%C:\GAMES\STEAM\STEAMAPPS\COMMON\SERIOUS SAM CLASSIC THE SECOND ENCOUNTER\Sources\GLShaders\RenderSession.cpp18084318@@@std@@@1@0ABV21@@Z 100110d0 f i RenderSession.obj
 0001:00010110       ?copy_backward@std@@YAPAV?$vector@URenderSession@?%C:\GAMES\STEAM\STEAMAPPS\COMMON\SERIOUS SAM CLASSIC THE SECOND ENCOUNTER\Sources\GLShaders\RenderSession.cpp18084318@@V?$allocator@URenderSession@?%C:\GAMES\STEAM\STEAMAPPS\COMMON\SERIOUS SAM CLASSIC THE SECOND ENCOUNTER\Sources\GLShaders\RenderSession.cpp18084318@@@std@@@1@PAV21@00@Z 10011110 f i RenderSession.obj
 0001:00010160       ?_Destroy@std@@YAXPAV?$vector@URenderSession@?%C:\GAMES\STEAM\STEAMAPPS\COMMON\SERIOUS SAM CLASSIC THE SECOND ENCOUNTER\Sources\GLShaders\RenderSession.cpp18084318@@V?$allocator@URenderSession@?%C:\GAMES\STEAM\STEAMAPPS\COMMON\SERIOUS SAM CLASSIC THE SECOND ENCOUNTER\Sources\GLShaders\RenderSession.cpp18084318@@@std@@@1@@Z 10011160 f i RenderSession.obj
 0001:00010180       ?swap@std@@YAXAAW4_Redbl@?$_Tree@KU?$pair@$$CBKI@std@@U_Kfn@?$map@KIU?$less@K@std@@V?$allocator@I@2@@2@U?$less@K@2@V?$allocator@I@2@@1@0@Z 10011180 f i RenderSession.obj
 0001:000101c0       ?fill@std@@YAXPAURenderSession@?%C:\GAMES\STEAM\STEAMAPPS\COMMON\SERIOUS SAM CLASSIC THE SECOND ENCOUNTER\Sources\GLShaders\RenderSession.cpp18084318@@0ABU23@@Z 100111c0 f i RenderSession.obj
 0001:00010200       ?copy_backward@std@@YAPAURenderSession@?%C:\GAMES\STEAM\STEAMAPPS\COMMON\SERIOUS SAM CLASSIC THE SECOND ENCOUNTER\Sources\GLShaders\RenderSession.cpp18084318@@PAU23@00@Z 10011200 f i RenderSession.obj
 0001:00010250       ?_Destroy@std@@YAXPAURenderSession@?%C:\GAMES\STEAM\STEAMAPPS\COMMON\SERIOUS SAM CLASSIC THE SECOND ENCOUNTER\Sources\GLShaders\RenderSession.cpp18084318@@@Z 10011250 f i RenderSession.obj
 0001:00010270       ?fill@std@@YAXPAV?$basic_string@DU?$char_traits@D@std@@V?$allocator@D@2@@1@0ABV21@@Z 10011270 f i RenderSession.obj
 0001:000102c0       ?copy_backward@std@@YAPAV?$basic_string@DU?$char_traits@D@std@@V?$allocator@D@2@@1@PAV21@00@Z 100112c0 f i RenderSession.obj
 0001:00010320       ?_Construct@std@@YAXPAV?$basic_string@DU?$char_traits@D@std@@V?$allocator@D@2@@1@ABV21@@Z 10011320 f i RenderSession.obj
 0001:000103e0       ??3@YAXPAX0@Z              100113e0 f i RenderSession.obj
 0001:000103f0       ?_Destroy@std@@YAXPAV?$basic_string@DU?$char_traits@D@std@@V?$allocator@D@2@@1@@Z 100113f0 f i RenderSession.obj
 0001:00010410       ?_Allocate@std@@YAPAV?$vector@URenderSession@?%C:\GAMES\STEAM\STEAMAPPS\COMMON\SERIOUS SAM CLASSIC THE SECOND ENCOUNTER\Sources\GLShaders\RenderSession.cpp18084318@@V?$allocator@URenderSession@?%C:\GAMES\STEAM\STEAMAPPS\COMMON\SERIOUS SAM CLASSIC THE SECOND ENCOUNTER\Sources\GLShaders\RenderSession.cpp18084318@@@std@@@1@HPAV21@@Z 10011410 f i RenderSession.obj
 0001:00010450       ?_Destroy@std@@YAXPAU?$pair@$$CBKI@1@@Z 10011450 f i RenderSession.obj
 0001:00010460       ?_Allocate@std@@YAPAURenderSession@?%C:\GAMES\STEAM\STEAMAPPS\COMMON\SERIOUS SAM CLASSIC THE SECOND ENCOUNTER\Sources\GLShaders\RenderSession.cpp18084318@@HPAU23@@Z 10011460 f i RenderSession.obj
 0001:000104a0       ?_Allocate@std@@YAPADHPAD@Z 100114a0 f i RenderSession.obj
 0001:000104d0       ?_Construct@std@@YAXPAV?$vector@URenderSession@?%C:\GAMES\STEAM\STEAMAPPS\COMMON\SERIOUS SAM CLASSIC THE SECOND ENCOUNTER\Sources\GLShaders\RenderSession.cpp18084318@@V?$allocator@URenderSession@?%C:\GAMES\STEAM\STEAMAPPS\COMMON\SERIOUS SAM CLASSIC THE SECOND ENCOUNTER\Sources\GLShaders\RenderSession.cpp18084318@@@std@@@1@ABV21@@Z 100114d0 f i RenderSession.obj
 0001:00010580       ?_Construct@std@@YAXPAU?$pair@$$CBKI@1@ABU21@@Z 10011580 f i RenderSession.obj
 0001:000105f0       ?_Construct@std@@YAXPAURenderSession@?%C:\GAMES\STEAM\STEAMAPPS\COMMON\SERIOUS SAM CLASSIC THE SECOND ENCOUNTER\Sources\GLShaders\RenderSession.cpp18084318@@ABU23@@Z 100115f0 f i RenderSession.obj
 0001:000106a0       ??_G?$vector@URenderSession@?%C:\GAMES\STEAM\STEAMAPPS\COMMON\SERIOUS SAM CLASSIC THE SECOND ENCOUNTER\Sources\GLShaders\RenderSession.cpp18084318@@V?$allocator@URenderSession@?%C:\GAMES\STEAM\STEAMAPPS\COMMON\SERIOUS SAM CLASSIC THE SECOND ENCOUNTER\Sources\GLShaders\RenderSession.cpp18084318@@@std@@@std@@QAEPAXI@Z 100116a0 f i RenderSession.obj
 0001:000106f0       ??4RenderSession@?%C:\GAMES\STEAM\STEAMAPPS\COMMON\SERIOUS SAM CLASSIC THE SECOND ENCOUNTER\Sources\GLShaders\RenderSession.cpp18084318@@QAEAAU01@ABU01@@Z 100116f0 f i RenderSession.obj
 0001:000107c0       ??4?$vector@IV?$allocator@I@std@@@std@@QAEAAV01@ABV01@@Z 100117c0 f i RenderSession.obj
 0001:000109e0       ?capacity@?$vector@IV?$allocator@I@std@@@std@@QBEIXZ 100119e0 f i RenderSession.obj
 0001:00010a40       ?begin@?$vector@IV?$allocator@I@std@@@std@@QBEPBIXZ 10011a40 f i RenderSession.obj
 0001:00010a60       ?end@?$vector@IV?$allocator@I@std@@@std@@QBEPBIXZ 10011a60 f i RenderSession.obj
 0001:00010a80       ?copy@std@@YAPAIPBI0PAI@Z  10011a80 f i RenderSession.obj
 0001:00010ac0       ??_GRenderSession@?%C:\GAMES\STEAM\STEAMAPPS\COMMON\SERIOUS SAM CLASSIC THE SECOND ENCOUNTER\Sources\GLShaders\RenderSession.cpp18084318@@QAEPAXI@Z 10011ac0 f i RenderSession.obj
 0001:00010b10       ??_G?$basic_string@DU?$char_traits@D@std@@V?$allocator@D@2@@std@@QAEPAXI@Z 10011b10 f i RenderSession.obj
 0001:00010b70       ??0RenderSession@?%C:\GAMES\STEAM\STEAMAPPS\COMMON\SERIOUS SAM CLASSIC THE SECOND ENCOUNTER\Sources\GLShaders\RenderSession.cpp18084318@@QAE@ABU01@@Z 10011b70 f i RenderSession.obj
 0001:00010c80       ??0?$vector@IV?$allocator@I@std@@@std@@QAE@ABV01@@Z 10011c80 f i RenderSession.obj
 0001:00010d20       ??0?$vector@PAVCTextureObject@@V?$allocator@PAVCTextureObject@@@std@@@std@@QAE@ABV01@@Z 10011d20 f i RenderSession.obj
 0001:00010dc0       ??4?$vector@PAVCTextureObject@@V?$allocator@PAVCTextureObject@@@std@@@std@@QAEAAV01@ABV01@@Z 10011dc0 f i RenderSession.obj
 0001:00010fe0       ??0?$vector@URenderSession@?%C:\GAMES\STEAM\STEAMAPPS\COMMON\SERIOUS SAM CLASSIC THE SECOND ENCOUNTER\Sources\GLShaders\RenderSession.cpp18084318@@V?$allocator@URenderSession@?%C:\GAMES\STEAM\STEAMAPPS\COMMON\SERIOUS SAM CLASSIC THE SECOND ENCOUNTER\Sources\GLShaders\RenderSession.cpp18084318@@@std@@@std@@QAE@ABV01@@Z 10011fe0 f i RenderSession.obj
 0001:00011080       ??4?$vector@URenderSession@?%C:\GAMES\STEAM\STEAMAPPS\COMMON\SERIOUS SAM CLASSIC THE SECOND ENCOUNTER\Sources\GLShaders\RenderSession.cpp18084318@@V?$allocator@URenderSession@?%C:\GAMES\STEAM\STEAMAPPS\COMMON\SERIOUS SAM CLASSIC THE SECOND ENCOUNTER\Sources\GLShaders\RenderSession.cpp18084318@@@std@@@std@@QAEAAV01@ABV01@@Z 10012080 f i RenderSession.obj
 0001:000112a0       ?begin@?$vector@PAVCTextureObject@@V?$allocator@PAVCTextureObject@@@std@@@std@@QBEPBQAVCTextureObject@@XZ 100122a0 f i RenderSession.obj
 0001:000112c0       ?end@?$vector@PAVCTextureObject@@V?$allocator@PAVCTextureObject@@@std@@@std@@QBEPBQAVCTextureObject@@XZ 100122c0 f i RenderSession.obj
 0001:000112e0       ?capacity@?$vector@URenderSession@?%C:\GAMES\STEAM\STEAMAPPS\COMMON\SERIOUS SAM CLASSIC THE SECOND ENCOUNTER\Sources\GLShaders\RenderSession.cpp18084318@@V?$allocator@URenderSession@?%C:\GAMES\STEAM\STEAMAPPS\COMMON\SERIOUS SAM CLASSIC THE SECOND ENCOUNTER\Sources\GLShaders\RenderSession.cpp18084318@@@std@@@std@@QBEIXZ 100122e0 f i RenderSession.obj
 0001:00011340       ?begin@?$vector@URenderSession@?%C:\GAMES\STEAM\STEAMAPPS\COMMON\SERIOUS SAM CLASSIC THE SECOND ENCOUNTER\Sources\GLShaders\RenderSession.cpp18084318@@V?$allocator@URenderSession@?%C:\GAMES\STEAM\STEAMAPPS\COMMON\SERIOUS SAM CLASSIC THE SECOND ENCOUNTER\Sources\GLShaders\RenderSession.cpp18084318@@@std@@@std@@QBEPBURenderSession@?%C:\GAMES\STEAM\STEAMAPPS\COMMON\SERIOUS SAM CLASSIC THE SECOND ENCOUNTER\Sources\GLShaders\RenderSession.cpp18084318@@XZ 10012340 f i RenderSession.obj
 0001:00011360       ?end@?$vector@URenderSession@?%C:\GAMES\STEAM\STEAMAPPS\COMMON\SERIOUS SAM CLASSIC THE SECOND ENCOUNTER\Sources\GLShaders\RenderSession.cpp18084318@@V?$allocator@URenderSession@?%C:\GAMES\STEAM\STEAMAPPS\COMMON\SERIOUS SAM CLASSIC THE SECOND ENCOUNTER\Sources\GLShaders\RenderSession.cpp18084318@@@std@@@std@@QBEPBURenderSession@?%C:\GAMES\STEAM\STEAMAPPS\COMMON\SERIOUS SAM CLASSIC THE SECOND ENCOUNTER\Sources\GLShaders\RenderSession.cpp18084318@@XZ 10012360 f i RenderSession.obj
 0001:00011380       ?copy@std@@YAPAPAVCTextureObject@@PBQAV2@0PAPAV2@@Z 10012380 f i RenderSession.obj
 0001:000113c0       ?copy@std@@YAPAURenderSession@?%C:\GAMES\STEAM\STEAMAPPS\COMMON\SERIOUS SAM CLASSIC THE SECOND ENCOUNTER\Sources\GLShaders\RenderSession.cpp18084318@@PBU23@0PAU23@@Z 100123c0 f i RenderSession.obj
 0001:00011410       _Shader_GLShader_1         10012410 f   ShaderEntryPoints.obj
 0001:000115a0       _Shader_Desc_GLShader_1    100125a0 f   ShaderEntryPoints.obj
 0001:00011926       _Shader_GLShader_2         10012926 f   ShaderEntryPoints.obj
 0001:00011ab6       _Shader_Desc_GLShader_2    10012ab6 f   ShaderEntryPoints.obj
 0001:00011e3c       _Shader_GLShader_3         10012e3c f   ShaderEntryPoints.obj
 0001:00011fcc       _Shader_Desc_GLShader_3    10012fcc f   ShaderEntryPoints.obj
 0001:00012352       _Shader_GLShader_4         10013352 f   ShaderEntryPoints.obj
 0001:000124e2       _Shader_Desc_GLShader_4    100134e2 f   ShaderEntryPoints.obj
 0001:00012868       _Shader_GLShader_5         10013868 f   ShaderEntryPoints.obj
 0001:000129f8       _Shader_Desc_GLShader_5    100139f8 f   ShaderEntryPoints.obj
 0001:00012d7e       _Shader_GLShader_6         10013d7e f   ShaderEntryPoints.obj
 0001:00012f0e       _Shader_Desc_GLShader_6    10013f0e f   ShaderEntryPoints.obj
 0001:00013294       _Shader_GLShader_7         10014294 f   ShaderEntryPoints.obj
 0001:00013424       _Shader_Desc_GLShader_7    10014424 f   ShaderEntryPoints.obj
 0001:000137aa       _Shader_GLShader_8         100147aa f   ShaderEntryPoints.obj
 0001:0001393a       _Shader_Desc_GLShader_8    1001493a f   ShaderEntryPoints.obj
 0001:00013cc0       _Shader_GLShader_9         10014cc0 f   ShaderEntryPoints.obj
 0001:00013e50       _Shader_Desc_GLShader_9    10014e50 f   ShaderEntryPoints.obj
 0001:000141d6       _Shader_GLShader_10        100151d6 f   ShaderEntryPoints.obj
 0001:00014366       _Shader_Desc_GLShader_10   10015366 f   ShaderEntryPoints.obj
 0001:000146ec       _Shader_GLShader_11        100156ec f   ShaderEntryPoints.obj
 0001:0001487c       _Shader_Desc_GLShader_11   1001587c f   ShaderEntryPoints.obj
 0001:00014c02       _Shader_GLShader_12        10015c02 f   ShaderEntryPoints.obj
 0001:00014d92       _Shader_Desc_GLShader_12   10015d92 f   ShaderEntryPoints.obj
 0001:00015118       _Shader_GLShader_13        10016118 f   ShaderEntryPoints.obj
 0001:000152a8       _Shader_Desc_GLShader_13   100162a8 f   ShaderEntryPoints.obj
 0001:0001562e       _Shader_GLShader_14        1001662e f   ShaderEntryPoints.obj
 0001:000157be       _Shader_Desc_GLShader_14   100167be f   ShaderEntryPoints.obj
 0001:00015b44       _Shader_GLShader_15        10016b44 f   ShaderEntryPoints.obj
 0001:00015cd4       _Shader_Desc_GLShader_15   10016cd4 f   ShaderEntryPoints.obj
 0001:0001605a       _Shader_GLShader_16        1001705a f   ShaderEntryPoints.obj
 0001:000161ea       _Shader_Desc_GLShader_16   100171ea f   ShaderEntryPoints.obj
 0001:00016570       _Shader_GLShader_17        10017570 f   ShaderEntryPoints.obj
 0001:00016700       _Shader_Desc_GLShader_17   10017700 f   ShaderEntryPoints.obj
 0001:00016a86       _Shader_GLShader_18        10017a86 f   ShaderEntryPoints.obj
 0001:00016c16       _Shader_Desc_GLShader_18   10017c16 f   ShaderEntryPoints.obj
 0001:00016f9c       _Shader_GLShader_19        10017f9c f   ShaderEntryPoints.obj
 0001:0001712c       _Shader_Desc_GLShader_19   1001812c f   ShaderEntryPoints.obj
 0001:000174b2       _Shader_GLShader_20        100184b2 f   ShaderEntryPoints.obj
 0001:00017642       _Shader_Desc_GLShader_20   10018642 f   ShaderEntryPoints.obj
 0001:00019340       ??A?$vector@UShaderTexture@ShaderSettings@@V?$allocator@UShaderTexture@ShaderSettings@@@std@@@std@@QAEAAUShaderTexture@ShaderSettings@@I@Z 1001a340 f i ShaderEntryPoints.obj
 0001:00019380       ??A?$vector@UShaderUniform@ShaderSettings@@V?$allocator@UShaderUniform@ShaderSettings@@@std@@@std@@QAEAAUShaderUniform@ShaderSettings@@I@Z 1001a380 f i ShaderEntryPoints.obj
 0001:000193c0       ?begin@?$vector@UShaderTexture@ShaderSettings@@V?$allocator@UShaderTexture@ShaderSettings@@@std@@@std@@QAEPAUShaderTexture@ShaderSettings@@XZ 1001a3c0 f i ShaderEntryPoints.obj
 0001:000193e0       ?begin@?$vector@UShaderUniform@ShaderSettings@@V?$allocator@UShaderUniform@ShaderSettings@@@std@@@std@@QAEPAUShaderUniform@ShaderSettings@@XZ 1001a3e0 f i ShaderEntryPoints.obj
 0001:00019400       ?New@?$CStaticArray@VCTString@@@@QAEXJ@Z 1001a400 f i ShaderEntryPoints.obj
 0001:00019530       ??A?$CStaticArray@VCTString@@@@QAEAAVCTString@@J@Z 1001a530 f i ShaderEntryPoints.obj
 0001:00019560       ??_ECTString@@QAEPAXI@Z    1001a560 f i ShaderEntryPoints.obj
 0001:0001973c       ??0ShaderProfile@@QAE@XZ   1001a73c f   ShaderProfile.obj
 0001:000197c5       ?Clear@ShaderProfile@@QAEXXZ 1001a7c5 f   ShaderProfile.obj
 0001:00019875       ?AlexShaders_CreateShaderProfile@@YAHPBD@Z 1001a875 f   ShaderProfile.obj
 0001:00019978       ?AlexShaders_SetCurrentProfile@@YAHH@Z 1001a978 f   ShaderProfile.obj
 0001:0001999b       ?AlexShaders_GetCurrentProfile@@YAHXZ 1001a99b f   ShaderProfile.obj
 0001:000199a5       ?ClearAllProfiles@@YAXXZ   1001a9a5 f   ShaderProfile.obj
 0001:000199f6       ?GetCurrentShaderLoadingDir@@YAABV?$basic_string@DU?$char_traits@D@std@@V?$allocator@D@2@@std@@XZ 1001a9f6 f   ShaderProfile.obj
 0001:00019a12       ?GetOrCreateShader@@YAAAUShaderSettings@@H@Z 1001aa12 f   ShaderProfile.obj
 0001:00019ee0       ??0DefaultProfileLoader@?%C:\GAMES\STEAM\STEAMAPPS\COMMON\SERIOUS SAM CLASSIC THE SECOND ENCOUNTER\Sources\GLShaders\ShaderProfile.cpp180426575@@QAE@XZ 1001aee0 f i ShaderProfile.obj
 0001:0001a180       ??1ShaderProfile@@QAE@XZ   1001b180 f i ShaderProfile.obj
 0001:0001a210       ??0?$vector@UShaderSettings@@V?$allocator@UShaderSettings@@@std@@@std@@QAE@ABV?$allocator@UShaderSettings@@@1@@Z 1001b210 f i ShaderProfile.obj
 0001:0001a260       ??1?$vector@UShaderSettings@@V?$allocator@UShaderSettings@@@std@@@std@@QAE@XZ 1001b260 f i ShaderProfile.obj
 0001:0001a300       ?resize@?$vector@UShaderSettings@@V?$allocator@UShaderSettings@@@std@@@std@@QAEXIABUShaderSettings@@@Z 1001b300 f i ShaderProfile.obj
 0001:0001a3b0       ??A?$vector@UShaderSettings@@V?$allocator@UShaderSettings@@@std@@@std@@QAEAAUShaderSettings@@I@Z 1001b3b0 f i ShaderProfile.obj
 0001:0001a3f0       ?clear@?$vector@UShaderSettings@@V?$allocator@UShaderSettings@@@std@@@std@@QAEXXZ 1001b3f0 f i ShaderProfile.obj
 0001:0001a440       ??0?$vector@UShaderProfile@@V?$allocator@UShaderProfile@@@std@@@std@@QAE@ABV?$allocator@UShaderProfile@@@1@@Z 1001b440 f i ShaderProfile.obj
 0001:0001a490       ??1?$vector@UShaderProfile@@V?$allocator@UShaderProfile@@@std@@@std@@QAE@XZ 1001b490 f i ShaderProfile.obj
 0001:0001a520       ?size@?$vector@UShaderProfile@@V?$allocator@UShaderProfile@@@std@@@std@@QBEIXZ 1001b520 f i ShaderProfile.obj
 0001:0001a580       ??A?$vector@UShaderProfile@@V?$allocator@UShaderProfile@@@std@@@std@@QAEAAUShaderProfile@@I@Z 1001b580 f i ShaderProfile.obj
 0001:0001a5c0       ?back@?$vector@UShaderProfile@@V?$allocator@UShaderProfile@@@std@@@std@@QAEAAUShaderProfile@@XZ 1001b5c0 f i ShaderProfile.obj
 0001:0001a5f0       ?push_back@?$vector@UShaderProfile@@V?$allocator@UShaderProfile@@@std@@@std@@QAEXABUShaderProfile@@@Z 1001b5f0 f i ShaderProfile.obj
 0001:0001a630       ?begin@?$vector@UShaderSettings@@V?$allocator@UShaderSettings@@@std@@@std@@QAEPAUShaderSettings@@XZ 1001b630 f i ShaderProfile.obj
 0001:0001a650       ?end@?$vector@UShaderSettings@@V?$allocator@UShaderSettings@@@std@@@std@@QAEPAUShaderSettings@@XZ 1001b650 f i ShaderProfile.obj
 0001:0001a670       ?size@?$vector@UShaderSettings@@V?$allocator@UShaderSettings@@@std@@@std@@QBEIXZ 1001b670 f i ShaderProfile.obj
 0001:0001a6d0       ?insert@?$vector@UShaderSettings@@V?$allocator@UShaderSettings@@@std@@@std@@QAEXPAUShaderSettings@@IABU3@@Z 1001b6d0 f i ShaderProfile.obj
 0001:0001a9f0       ?erase@?$vector@UShaderSettings@@V?$allocator@UShaderSettings@@@std@@@std@@QAEPAUShaderSettings@@PAU3@0@Z 1001b9f0 f i ShaderProfile.obj
 0001:0001aa70       ?_Destroy@?$vector@UShaderSettings@@V?$allocator@UShaderSettings@@@std@@@std@@IAEXPAUShaderSettings@@0@Z 1001ba70 f i ShaderProfile.obj
 0001:0001aad0       ?deallocate@?$allocator@UShaderSettings@@@std@@QAEXPAXI@Z 1001bad0 f i ShaderProfile.obj
 0001:0001ab10       ?begin@?$vector@UShaderProfile@@V?$allocator@UShaderProfile@@@std@@@std@@QAEPAUShaderProfile@@XZ 1001bb10 f i ShaderProfile.obj
 0001:0001ab30       ?end@?$vector@UShaderProfile@@V?$allocator@UShaderProfile@@@std@@@std@@QAEPAUShaderProfile@@XZ 1001bb30 f i ShaderProfile.obj
 0001:0001ab50       ?insert@?$vector@UShaderProfile@@V?$allocator@UShaderProfile@@@std@@@std@@QAEPAUShaderProfile@@PAU3@ABU3@@Z 1001bb50 f i ShaderProfile.obj
 0001:0001abd0       ?_Destroy@?$vector@UShaderProfile@@V?$allocator@UShaderProfile@@@std@@@std@@IAEXPAUShaderProfile@@0@Z 1001bbd0 f i ShaderProfile.obj
 0001:0001ac20       ?deallocate@?$allocator@UShaderProfile@@@std@@QAEXPAXI@Z 1001bc20 f i ShaderProfile.obj
 0001:0001ac60       ?_Ucopy@?$vector@UShaderSettings@@V?$allocator@UShaderSettings@@@std@@@std@@IAEPAUShaderSettings@@PBU3@0PAU3@@Z 1001bc60 f i ShaderProfile.obj
 0001:0001acd0       ?_Ufill@?$vector@UShaderSettings@@V?$allocator@UShaderSettings@@@std@@@std@@IAEXPAUShaderSettings@@IABU3@@Z 1001bcd0 f i ShaderProfile.obj
 0001:0001ad30       ?allocate@?$allocator@UShaderSettings@@@std@@QAEPAUShaderSettings@@IPBX@Z 1001bd30 f i ShaderProfile.obj
 0001:0001ad70       ?destroy@?$allocator@UShaderSettings@@@std@@QAEXPAUShaderSettings@@@Z 1001bd70 f i ShaderProfile.obj
 0001:0001adb0       ?insert@?$vector@UShaderProfile@@V?$allocator@UShaderProfile@@@std@@@std@@QAEXPAUShaderProfile@@IABU3@@Z 1001bdb0 f i ShaderProfile.obj
 0001:0001b090       ?destroy@?$allocator@UShaderProfile@@@std@@QAEXPAUShaderProfile@@@Z 1001c090 f i ShaderProfile.obj
 0001:0001b0d0       ?construct@?$allocator@UShaderSettings@@@std@@QAEXPAUShaderSettings@@ABU3@@Z 1001c0d0 f i ShaderProfile.obj
 0001:0001b110       ?_Ucopy@?$vector@UShaderProfile@@V?$allocator@UShaderProfile@@@std@@@std@@IAEPAUShaderProfile@@PBU3@0PAU3@@Z 1001c110 f i ShaderProfile.obj
 0001:0001b180       ?_Ufill@?$vector@UShaderProfile@@V?$allocator@UShaderProfile@@@std@@@std@@IAEXPAUShaderProfile@@IABU3@@Z 1001c180 f i ShaderProfile.obj
 0001:0001b1e0       ?allocate@?$allocator@UShaderProfile@@@std@@QAEPAUShaderProfile@@IPBX@Z 1001c1e0 f i ShaderProfile.obj
 0001:0001b220       ?construct@?$allocator@UShaderProfile@@@std@@QAEXPAUShaderProfile@@ABU3@@Z 1001c220 f i ShaderProfile.obj
 0001:0001b260       ?fill@std@@YAXPAUShaderSettings@@0ABU2@@Z 1001c260 f i ShaderProfile.obj
 0001:0001b2a0       ?copy_backward@std@@YAPAUShaderSettings@@PAU2@00@Z 1001c2a0 f i ShaderProfile.obj
 0001:0001b2f0       ?copy@std@@YAPAUShaderSettings@@PAU2@00@Z 1001c2f0 f i ShaderProfile.obj
 0001:0001b340       ?_Allocate@std@@YAPAUShaderSettings@@HPAU2@@Z 1001c340 f i ShaderProfile.obj
 0001:0001b380       ?_Destroy@std@@YAXPAUShaderSettings@@@Z 1001c380 f i ShaderProfile.obj
 0001:0001b3a0       ?fill@std@@YAXPAUShaderProfile@@0ABU2@@Z 1001c3a0 f i ShaderProfile.obj
 0001:0001b3e0       ?copy_backward@std@@YAPAUShaderProfile@@PAU2@00@Z 1001c3e0 f i ShaderProfile.obj
 0001:0001b430       ?_Destroy@std@@YAXPAUShaderProfile@@@Z 1001c430 f i ShaderProfile.obj
 0001:0001b450       ?_Construct@std@@YAXPAUShaderSettings@@ABU2@@Z 1001c450 f i ShaderProfile.obj
 0001:0001b510       ?_Allocate@std@@YAPAUShaderProfile@@HPAU2@@Z 1001c510 f i ShaderProfile.obj
 0001:0001b550       ?_Construct@std@@YAXPAUShaderProfile@@ABU2@@Z 1001c550 f i ShaderProfile.obj
 0001:0001b600       ??4ShaderSettings@@QAEAAU0@ABU0@@Z 1001c600 f i ShaderProfile.obj
 0001:0001b900       ??_GShaderSettings@@QAEPAXI@Z 1001c900 f i ShaderProfile.obj
 0001:0001b950       ??4ShaderProfile@@QAEAAU0@ABU0@@Z 1001c950 f i ShaderProfile.obj
 0001:0001b9b0       ??_GShaderProfile@@QAEPAXI@Z 1001c9b0 f i ShaderProfile.obj
 0001:0001ba00       ??0ShaderSettings@@QAE@ABU0@@Z 1001ca00 f i ShaderProfile.obj
 0001:0001bd70       ??0ShaderProfile@@QAE@ABU0@@Z 1001cd70 f i ShaderProfile.obj
 0001:0001be10       ??4ShaderField@ShaderSettings@@QAEAAU01@ABU01@@Z 1001ce10 f i ShaderProfile.obj
 0001:0001be80       ??0ShaderField@ShaderSettings@@QAE@ABU01@@Z 1001ce80 f i ShaderProfile.obj
 0001:0001bf30       ??1ShaderField@ShaderSettings@@QAE@XZ 1001cf30 f i ShaderProfile.obj
 0001:0001bfc0       ??0?$vector@UShaderTexture@ShaderSettings@@V?$allocator@UShaderTexture@ShaderSettings@@@std@@@std@@QAE@ABV01@@Z 1001cfc0 f i ShaderProfile.obj
 0001:0001c060       ??1?$vector@UShaderTexture@ShaderSettings@@V?$allocator@UShaderTexture@ShaderSettings@@@std@@@std@@QAE@XZ 1001d060 f i ShaderProfile.obj
 0001:0001c100       ??4?$vector@UShaderTexture@ShaderSettings@@V?$allocator@UShaderTexture@ShaderSettings@@@std@@@std@@QAEAAV01@ABV01@@Z 1001d100 f i ShaderProfile.obj
 0001:0001c330       ??0?$vector@UShaderUniform@ShaderSettings@@V?$allocator@UShaderUniform@ShaderSettings@@@std@@@std@@QAE@ABV01@@Z 1001d330 f i ShaderProfile.obj
 0001:0001c3d0       ??1?$vector@UShaderUniform@ShaderSettings@@V?$allocator@UShaderUniform@ShaderSettings@@@std@@@std@@QAE@XZ 1001d3d0 f i ShaderProfile.obj
 0001:0001c470       ??4?$vector@UShaderUniform@ShaderSettings@@V?$allocator@UShaderUniform@ShaderSettings@@@std@@@std@@QAEAAV01@ABV01@@Z 1001d470 f i ShaderProfile.obj
 0001:0001c6a0       ??0?$vector@UShaderSettings@@V?$allocator@UShaderSettings@@@std@@@std@@QAE@ABV01@@Z 1001d6a0 f i ShaderProfile.obj
 0001:0001c740       ??4?$vector@UShaderSettings@@V?$allocator@UShaderSettings@@@std@@@std@@QAEAAV01@ABV01@@Z 1001d740 f i ShaderProfile.obj
 0001:0001c980       ?capacity@?$vector@UShaderTexture@ShaderSettings@@V?$allocator@UShaderTexture@ShaderSettings@@@std@@@std@@QBEIXZ 1001d980 f i ShaderProfile.obj
 0001:0001c9e0       ?end@?$vector@UShaderTexture@ShaderSettings@@V?$allocator@UShaderTexture@ShaderSettings@@@std@@@std@@QBEPBUShaderTexture@ShaderSettings@@XZ 1001d9e0 f i ShaderProfile.obj
 0001:0001ca00       ?_Destroy@?$vector@UShaderTexture@ShaderSettings@@V?$allocator@UShaderTexture@ShaderSettings@@@std@@@std@@IAEXPAUShaderTexture@ShaderSettings@@0@Z 1001da00 f i ShaderProfile.obj
 0001:0001ca50       ?_Ucopy@?$vector@UShaderTexture@ShaderSettings@@V?$allocator@UShaderTexture@ShaderSettings@@@std@@@std@@IAEPAUShaderTexture@ShaderSettings@@PBU34@0PAU34@@Z 1001da50 f i ShaderProfile.obj
 0001:0001cac0       ?allocate@?$allocator@UShaderTexture@ShaderSettings@@@std@@QAEPAUShaderTexture@ShaderSettings@@IPBX@Z 1001dac0 f i ShaderProfile.obj
 0001:0001cb00       ?deallocate@?$allocator@UShaderTexture@ShaderSettings@@@std@@QAEXPAXI@Z 1001db00 f i ShaderProfile.obj
 0001:0001cb40       ?capacity@?$vector@UShaderUniform@ShaderSettings@@V?$allocator@UShaderUniform@ShaderSettings@@@std@@@std@@QBEIXZ 1001db40 f i ShaderProfile.obj
 0001:0001cba0       ?end@?$vector@UShaderUniform@ShaderSettings@@V?$allocator@UShaderUniform@ShaderSettings@@@std@@@std@@QBEPBUShaderUniform@ShaderSettings@@XZ 1001dba0 f i ShaderProfile.obj
 0001:0001cbc0       ?_Destroy@?$vector@UShaderUniform@ShaderSettings@@V?$allocator@UShaderUniform@ShaderSettings@@@std@@@std@@IAEXPAUShaderUniform@ShaderSettings@@0@Z 1001dbc0 f i ShaderProfile.obj
 0001:0001cc10       ?_Ucopy@?$vector@UShaderUniform@ShaderSettings@@V?$allocator@UShaderUniform@ShaderSettings@@@std@@@std@@IAEPAUShaderUniform@ShaderSettings@@PBU34@0PAU34@@Z 1001dc10 f i ShaderProfile.obj
 0001:0001cc80       ?allocate@?$allocator@UShaderUniform@ShaderSettings@@@std@@QAEPAUShaderUniform@ShaderSettings@@IPBX@Z 1001dc80 f i ShaderProfile.obj
 0001:0001ccc0       ?deallocate@?$allocator@UShaderUniform@ShaderSettings@@@std@@QAEXPAXI@Z 1001dcc0 f i ShaderProfile.obj
 0001:0001cd00       ?capacity@?$vector@UShaderSettings@@V?$allocator@UShaderSettings@@@std@@@std@@QBEIXZ 1001dd00 f i ShaderProfile.obj
 0001:0001cd60       ?begin@?$vector@UShaderSettings@@V?$allocator@UShaderSettings@@@std@@@std@@QBEPBUShaderSettings@@XZ 1001dd60 f i ShaderProfile.obj
 0001:0001cd80       ?end@?$vector@UShaderSettings@@V?$allocator@UShaderSettings@@@std@@@std@@QBEPBUShaderSettings@@XZ 1001dd80 f i ShaderProfile.obj
 0001:0001cda0       ?construct@?$allocator@UShaderTexture@ShaderSettings@@@std@@QAEXPAUShaderTexture@ShaderSettings@@ABU34@@Z 1001dda0 f i ShaderProfile.obj
 0001:0001cde0       ?destroy@?$allocator@UShaderTexture@ShaderSettings@@@std@@QAEXPAUShaderTexture@ShaderSettings@@@Z 1001dde0 f i ShaderProfile.obj
 0001:0001ce20       ?construct@?$allocator@UShaderUniform@ShaderSettings@@@std@@QAEXPAUShaderUniform@ShaderSettings@@ABU34@@Z 1001de20 f i ShaderProfile.obj
 0001:0001ce60       ?destroy@?$allocator@UShaderUniform@ShaderSettings@@@std@@QAEXPAUShaderUniform@ShaderSettings@@@Z 1001de60 f i ShaderProfile.obj
 0001:0001cea0       ?copy@std@@YAPAUShaderTexture@ShaderSettings@@PBU23@0PAU23@@Z 1001dea0 f i ShaderProfile.obj
 0001:0001cef0       ?copy@std@@YAPAUShaderUniform@ShaderSettings@@PBU23@0PAU23@@Z 1001def0 f i ShaderProfile.obj
 0001:0001cf40       ?copy@std@@YAPAUShaderSettings@@PBU2@0PAU2@@Z 1001df40 f i ShaderProfile.obj
 0001:0001cf90       ?_Allocate@std@@YAPAUShaderTexture@ShaderSettings@@HPAU23@@Z 1001df90 f i ShaderProfile.obj
 0001:0001cfd0       ?_Allocate@std@@YAPAUShaderUniform@ShaderSettings@@HPAU23@@Z 1001dfd0 f i ShaderProfile.obj
 0001:0001d010       ?_Construct@std@@YAXPAUShaderTexture@ShaderSettings@@ABU23@@Z 1001e010 f i ShaderProfile.obj
 0001:0001d0c0       ?_Destroy@std@@YAXPAUShaderTexture@ShaderSettings@@@Z 1001e0c0 f i ShaderProfile.obj
 0001:0001d0e0       ?_Construct@std@@YAXPAUShaderUniform@ShaderSettings@@ABU23@@Z 1001e0e0 f i ShaderProfile.obj
 0001:0001d190       ?_Destroy@std@@YAXPAUShaderUniform@ShaderSettings@@@Z 1001e190 f i ShaderProfile.obj
 0001:0001d1b0       ??4ShaderTexture@ShaderSettings@@QAEAAU01@ABU01@@Z 1001e1b0 f i ShaderProfile.obj
 0001:0001d200       ??4ShaderUniform@ShaderSettings@@QAEAAU01@ABU01@@Z 1001e200 f i ShaderProfile.obj
 0001:0001d250       ??0ShaderTexture@ShaderSettings@@QAE@ABU01@@Z 1001e250 f i ShaderProfile.obj
 0001:0001d2a0       ??_GShaderTexture@ShaderSettings@@QAEPAXI@Z 1001e2a0 f i ShaderProfile.obj
 0001:0001d2f0       ??0ShaderUniform@ShaderSettings@@QAE@ABU01@@Z 1001e2f0 f i ShaderProfile.obj
 0001:0001d340       ??_GShaderUniform@ShaderSettings@@QAEPAXI@Z 1001e340 f i ShaderProfile.obj
 0001:0001d390       ??1ShaderUniform@ShaderSettings@@QAE@XZ 1001e390 f i ShaderProfile.obj
 0001:0001d3c0       ??1ShaderTexture@ShaderSettings@@QAE@XZ 1001e3c0 f i ShaderProfile.obj
 0001:0001d3f0       ?ReadTextFile@?%C:\GAMES\STEAM\STEAMAPPS\COMMON\SERIOUS SAM CLASSIC THE SECOND ENCOUNTER\Sources\GLShaders\ShaderSettings.cpp22077576@@YA?AV?$vector@DV?$allocator@D@std@@@std@@ABV?$basic_string@DU?$char_traits@D@std@@V?$allocator@D@2@@3@0AAV?$basic_ofstream@DU?$char_traits@D@std@@@3@@Z 1001e3f0 f   ShaderSettings.obj
 0001:0001d68f       ?ReadFieldValue@?%C:\GAMES\STEAM\STEAMAPPS\COMMON\SERIOUS SAM CLASSIC THE SECOND ENCOUNTER\Sources\GLShaders\ShaderSettings.cpp22077576@@YAXAAUShaderField@ShaderSettings@@PAUjson_t@@_NAAV?$basic_ofstream@DU?$char_traits@D@std@@@std@@AA_N@Z 1001e68f f   ShaderSettings.obj
 0001:0001da61       ?ReadTextureWrapping@?%C:\GAMES\STEAM\STEAMAPPS\COMMON\SERIOUS SAM CLASSIC THE SECOND ENCOUNTER\Sources\GLShaders\ShaderSettings.cpp22077576@@YAHABV?$basic_string@DU?$char_traits@D@std@@V?$allocator@D@2@@std@@@Z 1001ea61 f   ShaderSettings.obj
 0001:0001dac8       ?ReadCulling@?%C:\GAMES\STEAM\STEAMAPPS\COMMON\SERIOUS SAM CLASSIC THE SECOND ENCOUNTER\Sources\GLShaders\ShaderSettings.cpp22077576@@YAHABV?$basic_string@DU?$char_traits@D@std@@V?$allocator@D@2@@std@@@Z 1001eac8 f   ShaderSettings.obj
 0001:0001db5a       ?ReadDepthFunc@?%C:\GAMES\STEAM\STEAMAPPS\COMMON\SERIOUS SAM CLASSIC THE SECOND ENCOUNTER\Sources\GLShaders\ShaderSettings.cpp22077576@@YAHABV?$basic_string@DU?$char_traits@D@std@@V?$allocator@D@2@@std@@@Z 1001eb5a f   ShaderSettings.obj
 0001:0001dcfd       ?ReadBlendMode@?%C:\GAMES\STEAM\STEAMAPPS\COMMON\SERIOUS SAM CLASSIC THE SECOND ENCOUNTER\Sources\GLShaders\ShaderSettings.cpp22077576@@YAHABV?$basic_string@DU?$char_traits@D@std@@V?$allocator@D@2@@std@@@Z 1001ecfd f   ShaderSettings.obj
 0001:0001dea0       ??0ShaderUniform@ShaderSettings@@QAE@XZ 1001eea0 f   ShaderSettings.obj
 0001:0001ded1       ?Bind@ShaderUniform@ShaderSettings@@QAEXI@Z 1001eed1 f   ShaderSettings.obj
 0001:0001df40       ?LoadTextureType@ShaderTexture@ShaderSettings@@QAEXI@Z 1001ef40 f   ShaderSettings.obj
 0001:0001e030       ??0ShaderSettings@@QAE@XZ  1001f030 f   ShaderSettings.obj
 0001:0001e201       ??1ShaderSettings@@QAE@XZ  1001f201 f   ShaderSettings.obj
 0001:0001e346       ?CompileShader@ShaderSettings@@QAEXXZ 1001f346 f   ShaderSettings.obj
 0001:0001f042       ?LoadShader@@YAXABV?$basic_string@DU?$char_traits@D@std@@V?$allocator@D@2@@std@@0AAUShaderSettings@@@Z 10020042 f   ShaderSettings.obj
 0001:000243b0       ??0ShaderField@ShaderSettings@@QAE@XZ 100253b0 f i ShaderSettings.obj
 0001:00024460       ??0JSONScope@?%C:\GAMES\STEAM\STEAMAPPS\COMMON\SERIOUS SAM CLASSIC THE SECOND ENCOUNTER\Sources\GLShaders\ShaderSettings.cpp22077576@@QAE@PAUjson_t@@@Z 10025460 f i ShaderSettings.obj
 0001:00024490       ??1JSONScope@?%C:\GAMES\STEAM\STEAMAPPS\COMMON\SERIOUS SAM CLASSIC THE SECOND ENCOUNTER\Sources\GLShaders\ShaderSettings.cpp22077576@@QAE@XZ 10025490 f i ShaderSettings.obj
 0001:000244d0       ??0ShaderTexture@ShaderSettings@@QAE@XZ 100254d0 f i ShaderSettings.obj
 0001:00024500       ??B?$fpos@H@std@@QBEJXZ    10025500 f i ShaderSettings.obj
 0001:00024530       ??0?$vector@UShaderTexture@ShaderSettings@@V?$allocator@UShaderTexture@ShaderSettings@@@std@@@std@@QAE@ABV?$allocator@UShaderTexture@ShaderSettings@@@1@@Z 10025530 f i ShaderSettings.obj
 0001:00024580       ?end@?$vector@UShaderTexture@ShaderSettings@@V?$allocator@UShaderTexture@ShaderSettings@@@std@@@std@@QAEPAUShaderTexture@ShaderSettings@@XZ 10025580 f i ShaderSettings.obj
 0001:000245a0       ?push_back@?$vector@UShaderTexture@ShaderSettings@@V?$allocator@UShaderTexture@ShaderSettings@@@std@@@std@@QAEXABUShaderTexture@ShaderSettings@@@Z 100255a0 f i ShaderSettings.obj
 0001:000245e0       ??0?$vector@UShaderUniform@ShaderSettings@@V?$allocator@UShaderUniform@ShaderSettings@@@std@@@std@@QAE@ABV?$allocator@UShaderUniform@ShaderSettings@@@1@@Z 100255e0 f i ShaderSettings.obj
 0001:00024630       ?end@?$vector@UShaderUniform@ShaderSettings@@V?$allocator@UShaderUniform@ShaderSettings@@@std@@@std@@QAEPAUShaderUniform@ShaderSettings@@XZ 10025630 f i ShaderSettings.obj
 0001:00024650       ?resize@?$vector@UShaderUniform@ShaderSettings@@V?$allocator@UShaderUniform@ShaderSettings@@@std@@@std@@QAEXIABUShaderUniform@ShaderSettings@@@Z 10025650 f i ShaderSettings.obj
 0001:000246f0       ?push_back@?$vector@UShaderUniform@ShaderSettings@@V?$allocator@UShaderUniform@ShaderSettings@@@std@@@std@@QAEXABUShaderUniform@ShaderSettings@@@Z 100256f0 f i ShaderSettings.obj
 0001:00024730       ??0?$vector@DV?$allocator@D@std@@@std@@QAE@ABV?$allocator@D@1@@Z 10025730 f i ShaderSettings.obj
 0001:00024780       ??0?$vector@DV?$allocator@D@std@@@std@@QAE@IABDABV?$allocator@D@1@@Z 10025780 f i ShaderSettings.obj
 0001:00024810       ??0?$vector@DV?$allocator@D@std@@@std@@QAE@ABV01@@Z 10025810 f i ShaderSettings.obj
 0001:000248b0       ??1?$vector@DV?$allocator@D@std@@@std@@QAE@XZ 100258b0 f i ShaderSettings.obj
 0001:00024940       ?empty@?$vector@DV?$allocator@D@std@@@std@@QBE_NXZ 10025940 f i ShaderSettings.obj
 0001:00024980       ??A?$vector@DV?$allocator@D@std@@@std@@QAEAADI@Z 10025980 f i ShaderSettings.obj
 0001:000249c0       ?allocate@?$allocator@D@std@@QAEPADIPBX@Z 100259c0 f i ShaderSettings.obj
 0001:00024a00       ?deallocate@?$allocator@D@std@@QAEXPAXI@Z 10025a00 f i ShaderSettings.obj
 0001:00024a40       ?insert@?$vector@UShaderTexture@ShaderSettings@@V?$allocator@UShaderTexture@ShaderSettings@@@std@@@std@@QAEPAUShaderTexture@ShaderSettings@@PAU34@ABU34@@Z 10025a40 f i ShaderSettings.obj
 0001:00024ac0       ?insert@?$vector@UShaderUniform@ShaderSettings@@V?$allocator@UShaderUniform@ShaderSettings@@@std@@@std@@QAEPAUShaderUniform@ShaderSettings@@PAU34@ABU34@@Z 10025ac0 f i ShaderSettings.obj
 0001:00024b40       ?insert@?$vector@UShaderUniform@ShaderSettings@@V?$allocator@UShaderUniform@ShaderSettings@@@std@@@std@@QAEXPAUShaderUniform@ShaderSettings@@IABU34@@Z 10025b40 f i ShaderSettings.obj
 0001:00024e30       ?erase@?$vector@UShaderUniform@ShaderSettings@@V?$allocator@UShaderUniform@ShaderSettings@@@std@@@std@@QAEPAUShaderUniform@ShaderSettings@@PAU34@0@Z 10025e30 f i ShaderSettings.obj
 0001:00024eb0       ?begin@?$vector@DV?$allocator@D@std@@@std@@QAEPADXZ 10025eb0 f i ShaderSettings.obj
 0001:00024ed0       ?begin@?$vector@DV?$allocator@D@std@@@std@@QBEPBDXZ 10025ed0 f i ShaderSettings.obj
 0001:00024ef0       ?end@?$vector@DV?$allocator@D@std@@@std@@QBEPBDXZ 10025ef0 f i ShaderSettings.obj
 0001:00024f10       ?size@?$vector@DV?$allocator@D@std@@@std@@QBEIXZ 10025f10 f i ShaderSettings.obj
 0001:00024f60       ?_Destroy@?$vector@DV?$allocator@D@std@@@std@@IAEXPAD0@Z 10025f60 f i ShaderSettings.obj
 0001:00024fb0       ?_Ucopy@?$vector@DV?$allocator@D@std@@@std@@IAEPADPBD0PAD@Z 10025fb0 f i ShaderSettings.obj
 0001:00025020       ?_Ufill@?$vector@DV?$allocator@D@std@@@std@@IAEXPADIABD@Z 10026020 f i ShaderSettings.obj
 0001:00025080       ?construct@?$allocator@D@std@@QAEXPADABD@Z 10026080 f i ShaderSettings.obj
 0001:000250c0       ?destroy@?$allocator@D@std@@QAEXPAD@Z 100260c0 f i ShaderSettings.obj
 0001:00025100       ?_Destroy@std@@YAXPAD@Z    10026100 f i ShaderSettings.obj
 0001:00025110       ?insert@?$vector@UShaderTexture@ShaderSettings@@V?$allocator@UShaderTexture@ShaderSettings@@@std@@@std@@QAEXPAUShaderTexture@ShaderSettings@@IABU34@@Z 10026110 f i ShaderSettings.obj
 0001:00025400       ?_Ufill@?$vector@UShaderUniform@ShaderSettings@@V?$allocator@UShaderUniform@ShaderSettings@@@std@@@std@@IAEXPAUShaderUniform@ShaderSettings@@IABU34@@Z 10026400 f i ShaderSettings.obj
 0001:00025460       ?_Ufill@?$vector@UShaderTexture@ShaderSettings@@V?$allocator@UShaderTexture@ShaderSettings@@@std@@@std@@IAEXPAUShaderTexture@ShaderSettings@@IABU34@@Z 10026460 f i ShaderSettings.obj
 0001:000254c0       ?fill@std@@YAXPAUShaderUniform@ShaderSettings@@0ABU23@@Z 100264c0 f i ShaderSettings.obj
 0001:00025500       ?copy_backward@std@@YAPAUShaderUniform@ShaderSettings@@PAU23@00@Z 10026500 f i ShaderSettings.obj
 0001:00025550       ?copy@std@@YAPAUShaderUniform@ShaderSettings@@PAU23@00@Z 10026550 f i ShaderSettings.obj
 0001:000255a0       ?_Construct@std@@YAXPADABD@Z 100265a0 f i ShaderSettings.obj
 0001:00025610       ?fill@std@@YAXPAUShaderTexture@ShaderSettings@@0ABU23@@Z 10026610 f i ShaderSettings.obj
 0001:00025650       ?copy_backward@std@@YAPAUShaderTexture@ShaderSettings@@PAU23@00@Z 10026650 f i ShaderSettings.obj
 0001:00025706       _stbi_failure_reason       10026706 f   stb.obj
 0001:00025710       _stbi_image_free           10026710 f   stb.obj
 0001:00025734       _stbi_set_flip_vertically_on_load 10026734 f   stb.obj
 0001:00025741       _stbi_load                 10026741 f   stb.obj
 0001:00025817       _stbi_load_from_file       10026817 f   stb.obj
 0001:00025d0b       _stbi_load_from_file_16    10026d0b f   stb.obj
 0001:00025f69       _stbi_load_16              10026f69 f   stb.obj
 0001:00025ff5       _stbi_load_16_from_memory  10026ff5 f   stb.obj
 0001:000260ab       _stbi_load_16_from_callbacks 100270ab f   stb.obj
 0001:0002610f       _stbi_load_from_memory     1002710f f   stb.obj
 0001:00026173       _stbi_load_from_callbacks  10027173 f   stb.obj
 0001:000261d7       _stbi_loadf_from_memory    100271d7 f   stb.obj
 0001:000262ca       _stbi_loadf_from_callbacks 100272ca f   stb.obj
 0001:0002632e       _stbi_loadf                1002732e f   stb.obj
 0001:000263ba       _stbi_loadf_from_file      100273ba f   stb.obj
 0001:0002641a       _stbi_is_hdr_from_memory   1002741a f   stb.obj
 0001:00026421       _stbi_is_hdr               10027421 f   stb.obj
 0001:0002648e       _stbi_is_hdr_from_file     1002748e f   stb.obj
 0001:00026495       _stbi_is_hdr_from_callbacks 10027495 f   stb.obj
 0001:0002649c       _stbi_ldr_to_hdr_gamma     1002749c f   stb.obj
 0001:000264a9       _stbi_ldr_to_hdr_scale     100274a9 f   stb.obj
 0001:000264b6       _stbi_hdr_to_ldr_gamma     100274b6 f   stb.obj
 0001:000264ca       _stbi_hdr_to_ldr_scale     100274ca f   stb.obj
 0001:00027c67       _stbi_info                 10028c67 f   stb.obj
 0001:00027ce8       _stbi_info_from_file       10028ce8 f   stb.obj
 0001:00028036       _stbi_is_16_bit            10029036 f   stb.obj
 0001:000280ab       _stbi_is_16_bit_from_file  100290ab f   stb.obj
 0001:00028145       _stbi_info_from_memory     10029145 f   stb.obj
 0001:000281a5       _stbi_info_from_callbacks  100291a5 f   stb.obj
 0001:00028205       _stbi_is_16_bit_from_memory 10029205 f   stb.obj
 0001:00028259       _stbi_is_16_bit_from_callbacks 10029259 f   stb.obj
 0001:00028ed1       ?GLCubeMapBaker_New@@YAPAVCEntity@@XZ 10029ed1 f   GLCubeMapBaker.obj
 0001:00028f72       ?GLCubeMapBaker_OnInitClass@@YAXXZ 10029f72 f   GLCubeMapBaker.obj
 0001:00028f77       ?GLCubeMapBaker_OnEndClass@@YAXXZ 10029f77 f   GLCubeMapBaker.obj
 0001:00028f7c       ?GLCubeMapBaker_OnPrecache@@YAXPAVCDLLEntityClass@@J@Z 10029f7c f   GLCubeMapBaker.obj
 0001:00028f81       ?GLCubeMapBaker_OnWorldEnd@@YAXPAVCWorld@@@Z 10029f81 f   GLCubeMapBaker.obj
 0001:00028f86       ?GLCubeMapBaker_OnWorldInit@@YAXPAVCWorld@@@Z 10029f86 f   GLCubeMapBaker.obj
 0001:00028f8b       ?GLCubeMapBaker_OnWorldTick@@YAXPAVCWorld@@@Z 10029f8b f   GLCubeMapBaker.obj
 0001:00028f90       ?GLCubeMapBaker_OnWorldRender@@YAXPAVCWorld@@@Z 10029f90 f   GLCubeMapBaker.obj
 0001:0002907f       ?SetDefaultProperties@GLCubeMapBaker@@UAEXXZ 1002a07f f   GLCubeMapBaker.obj
 0001:000290d9       ??0GLCubeMapBaker@@QAE@XZ  1002a0d9 f   GLCubeMapBaker.obj
 0001:00029174       ??1GLCubeMapBaker@@UAE@XZ  1002a174 f   GLCubeMapBaker.obj
 0001:00029215       ?SetProfile@GLCubeMapBaker@@QAEXXZ 1002a215 f   GLCubeMapBaker.obj
 0001:0002926a       ?Read_t@GLCubeMapBaker@@UAEXPAVCTStream@@@Z 1002a26a f   GLCubeMapBaker.obj
 0001:000292c7       ?RenderOneTexture@GLCubeMapBaker@@QAEHPAVCDrawPort@@V?$Vector@M$02@@ABVCTFileName@@@Z 1002a2c7 f   GLCubeMapBaker.obj
 0001:00029968       ?BakeTexture@GLCubeMapBaker@@QAEXXZ 1002a968 f   GLCubeMapBaker.obj
 0001:0002a3c8       ?AdjustShaderParams@GLCubeMapBaker@@UAEXJPAVCShader@@AAUShaderParams@@@Z 1002b3c8 f   GLCubeMapBaker.obj
 0001:0002a496       ?Main@GLCubeMapBaker@@QAEHABVCEntityEvent@@@Z 1002b496 f   GLCubeMapBaker.obj
 0001:0002a66e       ?H0x05290000_Main_01@GLCubeMapBaker@@QAEHABVCEntityEvent@@@Z 1002b66e f   GLCubeMapBaker.obj
 0001:0002a749       ?H0x05290001_Main_02@GLCubeMapBaker@@QAEHABVCEntityEvent@@@Z 1002b749 f   GLCubeMapBaker.obj
 0001:0002a85c       ?H0x05290002_Main_03@GLCubeMapBaker@@QAEHABVCEntityEvent@@@Z 1002b85c f   GLCubeMapBaker.obj
 0001:0002a910       ?H0x05290003_Main_04@GLCubeMapBaker@@QAEHABVCEntityEvent@@@Z 1002b910 f   GLCubeMapBaker.obj
 0001:0002b140       ?GetName@GLCubeMapBaker@@UBEABVCTString@@XZ 1002c140 f i GLCubeMapBaker.obj
 0001:0002b160       ??_GGLCubeMapBaker@@UAEPAXI@Z 1002c160 f i GLCubeMapBaker.obj
 0001:0002b160       ??_EGLCubeMapBaker@@UAEPAXI@Z 1002c160 f i GLCubeMapBaker.obj
 0001:0002b1b0       ?AngleDeg@@YAMM@Z          1002c1b0 f i GLCubeMapBaker.obj
 0001:0002b1c0       ?RGBAToColor@@YAKEEEE@Z    1002c1c0 f i GLCubeMapBaker.obj
 0001:0002b210       ?ByteSwap@@YAKK@Z          1002c210 f i GLCubeMapBaker.obj
 0001:0002b250       ?ColorToRGB@@YAXKAAE00@Z   1002c250 f i GLCubeMapBaker.obj
 0001:0002b2a0       ??0?$Vector@M$01@@QAE@MM@Z 1002c2a0 f i GLCubeMapBaker.obj
 0001:0002b370       ??0?$AABBox@M$01@@QAE@ABV?$Vector@M$01@@0@Z 1002c370 f i GLCubeMapBaker.obj
 0001:0002b480       ??0?$Vector@M$01@@QAE@XZ   1002c480 f i GLCubeMapBaker.obj
 0001:0002b4a0       ?Min@@YAMMM@Z              1002c4a0 f i GLCubeMapBaker.obj
 0001:0002b4e0       ?Max@@YAMMM@Z              1002c4e0 f i GLCubeMapBaker.obj
 0001:0002b520       ??R?$Vector@M$01@@QBEABMH@Z 1002c520 f i GLCubeMapBaker.obj
 0001:0002b5e0       ?ClearToDefault@@YAXAAW4ActionType@@@Z 1002c5e0 f i GLModelHolder.obj
 0001:0002b600       ??0EGLMHChangeAnim@@QAE@ABV0@@Z 1002c600 f i GLModelHolder.obj
 0001:0002b6f0       ??4EGLMHChangeAnim@@QAEAAV0@ABV0@@Z 1002c6f0 f i GLModelHolder.obj
 0001:0002b7a0       ??1EGLMHChangeAnim@@UAE@XZ 1002c7a0 f i GLModelHolder.obj
 0001:0002b830       ??_GEGLMHChangeAnim@@UAEPAXI@Z 1002c830 f i GLModelHolder.obj
 0001:0002b880       ??_EEGLMHChangeAnim@@UAEPAXI@Z 1002c880 f i GLModelHolder.obj
 0001:0002b930       ?ClearToDefault@@YAXAAVEGLMHChangeAnim@@@Z 1002c930 f i GLModelHolder.obj
 0001:0002b9e0       ??0EGLMHRemoveAnim@@QAE@ABV0@@Z 1002c9e0 f i GLModelHolder.obj
 0001:0002ba90       ??4EGLMHRemoveAnim@@QAEAAV0@ABV0@@Z 1002ca90 f i GLModelHolder.obj
 0001:0002bb00       ??1EGLMHRemoveAnim@@UAE@XZ 1002cb00 f i GLModelHolder.obj
 0001:0002bb90       ??_GEGLMHRemoveAnim@@UAEPAXI@Z 1002cb90 f i GLModelHolder.obj
 0001:0002bbe0       ??_EEGLMHRemoveAnim@@UAEPAXI@Z 1002cbe0 f i GLModelHolder.obj
 0001:0002bc90       ?ClearToDefault@@YAXAAVEGLMHRemoveAnim@@@Z 1002cc90 f i GLModelHolder.obj
 0001:0002bd30       ??0EGLMHRemoveAnimsID@@QAE@ABV0@@Z 1002cd30 f i GLModelHolder.obj
 0001:0002bda0       ??4EGLMHRemoveAnimsID@@QAEAAV0@ABV0@@Z 1002cda0 f i GLModelHolder.obj
 0001:0002be00       ??1EGLMHRemoveAnimsID@@UAE@XZ 1002ce00 f i GLModelHolder.obj
 0001:0002be40       ??_GEGLMHRemoveAnimsID@@UAEPAXI@Z 1002ce40 f i GLModelHolder.obj
 0001:0002be90       ??_EEGLMHRemoveAnimsID@@UAEPAXI@Z 1002ce90 f i GLModelHolder.obj
 0001:0002bf40       ?ClearToDefault@@YAXAAVEGLMHRemoveAnimsID@@@Z 1002cf40 f i GLModelHolder.obj
 0001:0002bfe0       ??0EGLMHStopAllAnims@@QAE@ABV0@@Z 1002cfe0 f i GLModelHolder.obj
 0001:0002c040       ??4EGLMHStopAllAnims@@QAEAAV0@ABV0@@Z 1002d040 f i GLModelHolder.obj
 0001:0002c090       ??1EGLMHStopAllAnims@@UAE@XZ 1002d090 f i GLModelHolder.obj
 0001:0002c0d0       ??_GEGLMHStopAllAnims@@UAEPAXI@Z 1002d0d0 f i GLModelHolder.obj
 0001:0002c120       ??_EEGLMHStopAllAnims@@UAEPAXI@Z 1002d120 f i GLModelHolder.obj
 0001:0002c1d0       ?ClearToDefault@@YAXAAVEGLMHStopAllAnims@@@Z 1002d1d0 f i GLModelHolder.obj
 0001:0002c270       ?ClearToDefault@@YAXAAW4LightType@@@Z 1002d270 f i GLModelHolder.obj
 0001:0002c290       ?ClearToDefault@@YAXAAW4LensFlareType@@@Z 1002d290 f i GLModelHolder.obj
 0001:0002c2b0       ??0EChangeAnim@@QAE@ABV0@@Z 1002d2b0 f i GLModelHolder.obj
 0001:0002c3a0       ??4EChangeAnim@@QAEAAV0@ABV0@@Z 1002d3a0 f i GLModelHolder.obj
 0001:0002c480       ??1EChangeAnim@@UAE@XZ     1002d480 f i GLModelHolder.obj
 0001:0002c4c0       ??_GEChangeAnim@@UAEPAXI@Z 1002d4c0 f i GLModelHolder.obj
 0001:0002c510       ??_EEChangeAnim@@UAEPAXI@Z 1002d510 f i GLModelHolder.obj
 0001:0002c5c0       ?ClearToDefault@@YAXAAVEChangeAnim@@@Z 1002d5c0 f i GLModelHolder.obj
 0001:0002c660       ??0ESpawnSpray@@QAE@ABV0@@Z 1002d660 f i GLModelHolder.obj
 0001:0002c780       ??0CEntityPointer@@QAE@ABV0@@Z 1002d780 f i GLModelHolder.obj
 0001:0002c7e0       ??4ESpawnSpray@@QAEAAV0@ABV0@@Z 1002d7e0 f i GLModelHolder.obj
 0001:0002c8c0       ??4CEntityPointer@@QAEABV0@ABV0@@Z 1002d8c0 f i GLModelHolder.obj
 0001:0002c930       ??1ESpawnSpray@@UAE@XZ     1002d930 f i GLModelHolder.obj
 0001:0002c9c0       ??1CEntityPointer@@QAE@XZ  1002d9c0 f i GLModelHolder.obj
 0001:0002ca00       ??_GESpawnSpray@@UAEPAXI@Z 1002da00 f i GLModelHolder.obj
 0001:0002ca50       ??_EESpawnSpray@@UAEPAXI@Z 1002da50 f i GLModelHolder.obj
 0001:0002cb00       ?ClearToDefault@@YAXAAVESpawnSpray@@@Z 1002db00 f i GLModelHolder.obj
 0001:0002cba0       ?ClearToDefault@@YAXAAW4CustomShadingType@@@Z 1002dba0 f i GLModelHolder.obj
 0001:0002cbc0       ?ClearToDefault@@YAXAAW4ShadowType@@@Z 1002dbc0 f i GLModelHolder.obj
 0001:0002cbe0       ?ClearToDefault@@YAXAAW4BasicEffectType@@@Z 1002dbe0 f i GLModelHolder.obj
 0001:0002cc00       ??0ESpawnEffect@@QAE@ABV0@@Z 1002dc00 f i GLModelHolder.obj
 0001:0002cce0       ??4ESpawnEffect@@QAEAAV0@ABV0@@Z 1002dce0 f i GLModelHolder.obj
 0001:0002cdb0       ??1ESpawnEffect@@UAE@XZ    1002ddb0 f i GLModelHolder.obj
 0001:0002cdf0       ??_GESpawnEffect@@UAEPAXI@Z 1002ddf0 f i GLModelHolder.obj
 0001:0002ce40       ??_EESpawnEffect@@UAEPAXI@Z 1002de40 f i GLModelHolder.obj
 0001:0002cef0       ?ClearToDefault@@YAXAAVESpawnEffect@@@Z 1002def0 f i GLModelHolder.obj
 0001:0002cf90       ?ClearToDefault@@YAXAAW4DebrisParticlesType@@@Z 1002df90 f i GLModelHolder.obj
 0001:0002cfb0       ??0ESpawnDebris@@QAE@ABV0@@Z 1002dfb0 f i GLModelHolder.obj
 0001:0002d190       ??4ESpawnDebris@@QAEAAV0@ABV0@@Z 1002e190 f i GLModelHolder.obj
 0001:0002d330       ??1ESpawnDebris@@UAE@XZ    1002e330 f i GLModelHolder.obj
 0001:0002d3c0       ??_GESpawnDebris@@UAEPAXI@Z 1002e3c0 f i GLModelHolder.obj
 0001:0002d410       ??_EESpawnDebris@@UAEPAXI@Z 1002e410 f i GLModelHolder.obj
 0001:0002d4c0       ?ClearToDefault@@YAXAAVESpawnDebris@@@Z 1002e4c0 f i GLModelHolder.obj
 0001:0002d560       ??0ERangeModelDestruction@@QAE@ABV0@@Z 1002e560 f i GLModelHolder.obj
 0001:0002d5c0       ??4ERangeModelDestruction@@QAEAAV0@ABV0@@Z 1002e5c0 f i GLModelHolder.obj
 0001:0002d610       ??1ERangeModelDestruction@@UAE@XZ 1002e610 f i GLModelHolder.obj
 0001:0002d650       ??_GERangeModelDestruction@@UAEPAXI@Z 1002e650 f i GLModelHolder.obj
 0001:0002d6a0       ??_EERangeModelDestruction@@UAEPAXI@Z 1002e6a0 f i GLModelHolder.obj
 0001:0002d750       ?ClearToDefault@@YAXAAVERangeModelDestruction@@@Z 1002e750 f i GLModelHolder.obj
 0001:0002d7f0       ?ClearToDefault@@YAXAAW4DestructionDebrisType@@@Z 1002e7f0 f i GLModelHolder.obj
 0001:0002d810       ?ClearToDefault@@YAXAAW4SkaCustomShadingType@@@Z 1002e810 f i GLModelHolder.obj
 0001:0002d830       ?ClearToDefault@@YAXAAW4SkaShadowType@@@Z 1002e830 f i GLModelHolder.obj
 0001:0002dce9       ?GLModelHolder_New@@YAPAVCEntity@@XZ 1002ece9 f   GLModelHolder.obj
 0001:0002dd8a       ?GLModelHolder_OnInitClass@@YAXXZ 1002ed8a f   GLModelHolder.obj
 0001:0002dd8f       ?GLModelHolder_OnEndClass@@YAXXZ 1002ed8f f   GLModelHolder.obj
 0001:0002dd94       ?GLModelHolder_OnPrecache@@YAXPAVCDLLEntityClass@@J@Z 1002ed94 f   GLModelHolder.obj
 0001:0002dd99       ?GLModelHolder_OnWorldEnd@@YAXPAVCWorld@@@Z 1002ed99 f   GLModelHolder.obj
 0001:0002dd9e       ?GLModelHolder_OnWorldInit@@YAXPAVCWorld@@@Z 1002ed9e f   GLModelHolder.obj
 0001:0002dda3       ?GLModelHolder_OnWorldTick@@YAXPAVCWorld@@@Z 1002eda3 f   GLModelHolder.obj
 0001:0002dda8       ?GLModelHolder_OnWorldRender@@YAXPAVCWorld@@@Z 1002eda8 f   GLModelHolder.obj
 0001:0002de97       ?SetDefaultProperties@GLModelHolder@@UAEXXZ 1002ee97 f   GLModelHolder.obj
 0001:0002e0a3       ??0GLModelHolder@@QAE@XZ   1002f0a3 f   GLModelHolder.obj
 0001:0002e1ae       ??1GLModelHolder@@UAE@XZ   1002f1ae f   GLModelHolder.obj
 0001:0002e2a3       ?SetProfile@GLModelHolder@@QAEXXZ 1002f2a3 f   GLModelHolder.obj
 0001:0002e2fd       ?Read_t@GLModelHolder@@UAEXPAVCTStream@@@Z 1002f2fd f   GLModelHolder.obj
 0001:0002e44e       ?Write_t@GLModelHolder@@UAEXPAVCTStream@@@Z 1002f44e f   GLModelHolder.obj
 0001:0002e52e       ?AdjustShaderParams@GLModelHolder@@UAEXJPAVCShader@@AAUShaderParams@@@Z 1002f52e f   GLModelHolder.obj
 0001:0002e5fc       ?FillEntityStatistics@GLModelHolder@@UAEHPAUEntityStats@@@Z 1002f5fc f   GLModelHolder.obj
 0001:0002e6d2       ?GetClassificationBoxStretch@GLModelHolder@@UAE?AV?$Vector@M$02@@XZ 1002f6d2 f   GLModelHolder.obj
 0001:0002e738       ?ReceiveDamage@GLModelHolder@@UAEXPAVCEntity@@W4DamageType@@MABV?$Vector@M$02@@2@Z 1002f738 f   GLModelHolder.obj
 0001:0002e74c       ?GetEntityInfo@GLModelHolder@@UAEPAXXZ 1002f74c f   GLModelHolder.obj
 0001:0002e77c       ?IsTargetable@GLModelHolder@@UBEHXZ 1002f77c f   GLModelHolder.obj
 0001:0002e797       ?AdjustShadingParameters@GLModelHolder@@UAEHAAV?$Vector@M$02@@AAK1@Z 1002f797 f   GLModelHolder.obj
 0001:0002e919       ?MirrorAndStretch@GLModelHolder@@UAEXMH@Z 1002f919 f   GLModelHolder.obj
 0001:0002e987       ?StretchModel@GLModelHolder@@QAEXXZ 1002f987 f   GLModelHolder.obj
 0001:0002ec31       ?InitModelHolder@GLModelHolder@@QAEXXZ 1002fc31 f   GLModelHolder.obj
 0001:0002f017       ?Die@GLModelHolder@@QAEHABVCEntityEvent@@@Z 10030017 f   GLModelHolder.obj
 0001:0002f1c7       ?Main@GLModelHolder@@QAEHABVCEntityEvent@@@Z 100301c7 f   GLModelHolder.obj
 0001:0002f2e8       ?H0x05280001_Main_01@GLModelHolder@@QAEHABVCEntityEvent@@@Z 100302e8 f   GLModelHolder.obj
 0001:0002f8ca       ?H0x05280002_Main_02@GLModelHolder@@QAEHABVCEntityEvent@@@Z 100308ca f   GLModelHolder.obj
 0001:000301d0       ?GetName@GLModelHolder@@UBEABVCTString@@XZ 100311d0 f i GLModelHolder.obj
 0001:000301f0       ?GetDescription@GLModelHolder@@UBEABVCTString@@XZ 100311f0 f i GLModelHolder.obj
 0001:00030210       ??_EGLModelHolder@@UAEPAXI@Z 10031210 f i GLModelHolder.obj
 0001:00030210       ??_GGLModelHolder@@UAEPAXI@Z 10031210 f i GLModelHolder.obj
 0001:00030260       ?RGBToColor@@YAKEEE@Z      10031260 f i GLModelHolder.obj
 0001:000302a0       ?Abs@@YAMM@Z               100312a0 f i GLModelHolder.obj
 0001:000302e0       ??0?$CListIter@VCEntity@@$0KA@@@QAE@ABVCListHead@@@Z 100312e0 f i GLModelHolder.obj
 0001:00030330       ?MoveToNext@?$CListIter@VCEntity@@$0KA@@@QAEXXZ 10031330 f i GLModelHolder.obj
 0001:00030380       ?IsPastEnd@?$CListIter@VCEntity@@$0KA@@@QAEHXZ 10031380 f i GLModelHolder.obj
 0001:000303c0       ??C?$CListIter@VCEntity@@$0KA@@@QAEPAVCEntity@@XZ 100313c0 f i GLModelHolder.obj
 0001:000303f0       ??0?$Vector@M$02@@QAE@XZ   100313f0 f i GLModelHolder.obj
 0001:00030410       ??G?$Vector@M$02@@QBE?AV0@XZ 10031410 f i GLModelHolder.obj
 0001:00030490       ?Flip@?$Vector@M$02@@QAEAAV1@XZ 10031490 f i GLModelHolder.obj
 0001:00030540       ??D?$Vector@M$02@@QBE?AV0@M@Z 10031540 f i GLModelHolder.obj
 0001:000305c0       ??X?$Vector@M$02@@QAEAAV0@M@Z 100315c0 f i GLModelHolder.obj
 0001:00030660       ?Clamp@@YAKKKK@Z           10031660 f i GLModelHolder.obj
 0001:000306c0       ?Sgn@@YAMM@Z               100316c0 f i GLModelHolder.obj
 0001:00030aba       ?GLModelHolderAnimationChanger_New@@YAPAVCEntity@@XZ 10031aba f   GLModelHolderAnimationChanger.obj
 0001:00030b58       ?GLModelHolderAnimationChanger_OnInitClass@@YAXXZ 10031b58 f   GLModelHolderAnimationChanger.obj
 0001:00030b5d       ?GLModelHolderAnimationChanger_OnEndClass@@YAXXZ 10031b5d f   GLModelHolderAnimationChanger.obj
 0001:00030b62       ?GLModelHolderAnimationChanger_OnPrecache@@YAXPAVCDLLEntityClass@@J@Z 10031b62 f   GLModelHolderAnimationChanger.obj
 0001:00030b67       ?GLModelHolderAnimationChanger_OnWorldEnd@@YAXPAVCWorld@@@Z 10031b67 f   GLModelHolderAnimationChanger.obj
 0001:00030b6c       ?GLModelHolderAnimationChanger_OnWorldInit@@YAXPAVCWorld@@@Z 10031b6c f   GLModelHolderAnimationChanger.obj
 0001:00030b71       ?GLModelHolderAnimationChanger_OnWorldTick@@YAXPAVCWorld@@@Z 10031b71 f   GLModelHolderAnimationChanger.obj
 0001:00030b76       ?GLModelHolderAnimationChanger_OnWorldRender@@YAXPAVCWorld@@@Z 10031b76 f   GLModelHolderAnimationChanger.obj
 0001:00030c65       ?MakeCopy@EGLMHChangeAnim@@UAEPAVCEntityEvent@@XZ 10031c65 f   GLModelHolderAnimationChanger.obj
 0001:00030d0c       ??0EGLMHChangeAnim@@QAE@XZ 10031d0c f   GLModelHolderAnimationChanger.obj
 0001:00030e10       ?MakeCopy@EGLMHRemoveAnim@@UAEPAVCEntityEvent@@XZ 10031e10 f   GLModelHolderAnimationChanger.obj
 0001:00030eb7       ??0EGLMHRemoveAnim@@QAE@XZ 10031eb7 f   GLModelHolderAnimationChanger.obj
 0001:00030f57       ?MakeCopy@EGLMHRemoveAnimsID@@UAEPAVCEntityEvent@@XZ 10031f57 f   GLModelHolderAnimationChanger.obj
 0001:00030ffe       ??0EGLMHRemoveAnimsID@@QAE@XZ 10031ffe f   GLModelHolderAnimationChanger.obj
 0001:00031085       ?MakeCopy@EGLMHStopAllAnims@@UAEPAVCEntityEvent@@XZ 10032085 f   GLModelHolderAnimationChanger.obj
 0001:0003112c       ??0EGLMHStopAllAnims@@QAE@XZ 1003212c f   GLModelHolderAnimationChanger.obj
 0001:0003116d       ?SetDefaultProperties@GLModelHolderAnimationChanger@@UAEXXZ 1003216d f   GLModelHolderAnimationChanger.obj
 0001:0003124f       ?GetUsedMemory@GLModelHolderAnimationChanger@@UAEJXZ 1003224f f   GLModelHolderAnimationChanger.obj
 0001:000312b1       ?Main@GLModelHolderAnimationChanger@@QAEHABVCEntityEvent@@@Z 100322b1 f   GLModelHolderAnimationChanger.obj
 0001:0003142f       ?H0x052a0004_Main_01@GLModelHolderAnimationChanger@@QAEHABVCEntityEvent@@@Z 1003242f f   GLModelHolderAnimationChanger.obj
 0001:0003150a       ?H0x052a0005_Main_02@GLModelHolderAnimationChanger@@QAEHABVCEntityEvent@@@Z 1003250a f   GLModelHolderAnimationChanger.obj
 0001:0003161a       ?H0x052a0006_Main_03@GLModelHolderAnimationChanger@@QAEHABVCEntityEvent@@@Z 1003261a f   GLModelHolderAnimationChanger.obj
 0001:00031922       ?H0x052a0007_Main_04@GLModelHolderAnimationChanger@@QAEHABVCEntityEvent@@@Z 10032922 f   GLModelHolderAnimationChanger.obj
 0001:00031f30       ??0GLModelHolderAnimationChanger@@QAE@XZ 10032f30 f i GLModelHolderAnimationChanger.obj
 0001:00032010       ??0CEntityPointer@@QAE@XZ  10033010 f i GLModelHolderAnimationChanger.obj
 0001:00032040       ?GetName@GLModelHolderAnimationChanger@@UBEABVCTString@@XZ 10033040 f i GLModelHolderAnimationChanger.obj
 0001:00032060       ?GetTarget@GLModelHolderAnimationChanger@@UBEPAVCEntity@@XZ 10033060 f i GLModelHolderAnimationChanger.obj
 0001:000320a0       ??BCEntityPointer@@QBEPAVCEntity@@XZ 100330a0 f i GLModelHolderAnimationChanger.obj
 0001:000320c0       ?IsTargetable@GLModelHolderAnimationChanger@@UBEHXZ 100330c0 f i GLModelHolderAnimationChanger.obj
 0001:000320e0       ??_GGLModelHolderAnimationChanger@@UAEPAXI@Z 100330e0 f i GLModelHolderAnimationChanger.obj
 0001:000320e0       ??_EGLModelHolderAnimationChanger@@UAEPAXI@Z 100330e0 f i GLModelHolderAnimationChanger.obj
 0001:00032130       ??1GLModelHolderAnimationChanger@@UAE@XZ 10033130 f i GLModelHolderAnimationChanger.obj
 0001:00032200       ??4CEntityPointer@@QAEABV0@PAVCEntity@@@Z 10033200 f i GLModelHolderAnimationChanger.obj
 0001:00032270       ??CCEntityPointer@@QBEPAVCEntity@@XZ 10033270 f i GLModelHolderAnimationChanger.obj
 0001:00032290       _json_object               10033290 f   janssond:value.obj
 0001:00032360       _json_object_size          10033360 f   janssond:value.obj
 0001:000323a0       _json_object_get           100333a0 f   janssond:value.obj
 0001:00032400       _json_object_set_new_nocheck 10033400 f   janssond:value.obj
 0001:00032510       _json_object_set_new       10033510 f   janssond:value.obj
 0001:00032590       _json_object_del           10033590 f   janssond:value.obj
 0001:000325f0       _json_object_clear         100335f0 f   janssond:value.obj
 0001:00032650       _json_object_update        10033650 f   janssond:value.obj
 0001:000327c0       _json_object_update_existing 100337c0 f   janssond:value.obj
 0001:000328a0       _json_object_update_missing 100338a0 f   janssond:value.obj
 0001:00032980       _json_object_iter          10033980 f   janssond:value.obj
 0001:000329d0       _json_object_iter_at       100339d0 f   janssond:value.obj
 0001:00032a30       _json_object_iter_next     10033a30 f   janssond:value.obj
 0001:00032a90       _json_object_iter_key      10033a90 f   janssond:value.obj
 0001:00032ad0       _json_object_iter_value    10033ad0 f   janssond:value.obj
 0001:00032b10       _json_object_iter_set_new  10033b10 f   janssond:value.obj
 0001:00032b80       _json_object_key_to_iter   10033b80 f   janssond:value.obj
 0001:00032bb0       _json_array                10033bb0 f   janssond:value.obj
 0001:00032c50       _json_array_size           10033c50 f   janssond:value.obj
 0001:00032c90       _json_array_get            10033c90 f   janssond:value.obj
 0001:00032cf0       _json_array_set_new        10033cf0 f   janssond:value.obj
 0001:00032da0       _json_array_append_new     10033da0 f   janssond:value.obj
 0001:00032f90       _json_array_insert_new     10033f90 f   janssond:value.obj
 0001:00033140       _json_array_remove         10034140 f   janssond:value.obj
 0001:000331f0       _json_array_clear          100341f0 f   janssond:value.obj
 0001:00033280       _json_array_extend         10034280 f   janssond:value.obj
 0001:00033370       _json_string_nocheck       10034370 f   janssond:value.obj
 0001:00033470       _json_stringn_nocheck      10034470 f   janssond:value.obj
 0001:000334b0       _jsonp_stringn_nocheck_own 100344b0 f   janssond:value.obj
 0001:000334f0       _json_string               100344f0 f   janssond:value.obj
 0001:00033540       _json_stringn              10034540 f   janssond:value.obj
 0001:000335a0       _json_string_value         100345a0 f   janssond:value.obj
 0001:000335e0       _json_string_length        100345e0 f   janssond:value.obj
 0001:00033620       _json_string_set_nocheck   10034620 f   janssond:value.obj
 0001:00033680       _json_string_setn_nocheck  10034680 f   janssond:value.obj
 0001:00033710       _json_string_set           10034710 f   janssond:value.obj
 0001:00033770       _json_string_setn          10034770 f   janssond:value.obj
 0001:000337d0       _json_vsprintf             100347d0 f   janssond:value.obj
 0001:000338d0       _json_sprintf              100348d0 f   janssond:value.obj
 0001:00033920       _json_integer              10034920 f   janssond:value.obj
 0001:00033980       _json_integer_value        10034980 f   janssond:value.obj
 0001:000339c0       _json_integer_set          100349c0 f   janssond:value.obj
 0001:00033a00       _json_real                 10034a00 f   janssond:value.obj
 0001:00033b40       _json_real_value           10034b40 f   janssond:value.obj
 0001:00033b80       _json_real_set             10034b80 f   janssond:value.obj
 0001:00033c00       _json_number_value         10034c00 f   janssond:value.obj
 0001:00033c70       _json_true                 10034c70 f   janssond:value.obj
 0001:00033ca0       _json_false                10034ca0 f   janssond:value.obj
 0001:00033cd0       _json_null                 10034cd0 f   janssond:value.obj
 0001:00033d00       _json_delete               10034d00 f   janssond:value.obj
 0001:00033f50       _json_equal                10034f50 f   janssond:value.obj
 0001:00034320       _json_copy                 10035320 f   janssond:value.obj
 0001:00034640       _json_deep_copy            10035640 f   janssond:value.obj
 0001:00034840       _json_loads                10035840 f   janssond:load.obj
 0001:000365c0       _json_loadb                100375c0 f   janssond:load.obj
 0001:000366e0       _json_loadf                100376e0 f   janssond:load.obj
 0001:000367b0       _json_loadfd               100377b0 f   janssond:load.obj
 0001:00036890       _json_load_file            10037890 f   janssond:load.obj
 0001:00036990       _json_load_callback        10037990 f   janssond:load.obj
 0001:00036b30       _jsonp_malloc              10037b30 f   janssond:memory.obj
 0001:00036b80       _jsonp_free                10037b80 f   janssond:memory.obj
 0001:00036bd0       _jsonp_strdup              10037bd0 f   janssond:memory.obj
 0001:00036c20       _jsonp_strndup             10037c20 f   janssond:memory.obj
 0001:00036c90       _json_set_alloc_funcs      10037c90 f   janssond:memory.obj
 0001:00036cc0       _json_get_alloc_funcs      10037cc0 f   janssond:memory.obj
 0001:00036d00       _hashtable_init            10037d00 f   janssond:hashtable.obj
 0001:00036e10       _hashtable_close           10037e10 f   janssond:hashtable.obj
 0001:00036f50       _hashtable_set             10037f50 f   janssond:hashtable.obj
 0001:00037ef0       _hashtable_get             10038ef0 f   janssond:hashtable.obj
 0001:00037f90       _hashtable_del             10038f90 f   janssond:hashtable.obj
 0001:00038150       _hashtable_clear           10039150 f   janssond:hashtable.obj
 0001:00038200       _hashtable_iter            10039200 f   janssond:hashtable.obj
 0001:00038240       _hashtable_iter_at         10039240 f   janssond:hashtable.obj
 0001:000382e0       _hashtable_iter_next       100392e0 f   janssond:hashtable.obj
 0001:00038320       _hashtable_iter_key        10039320 f   janssond:hashtable.obj
 0001:00038350       _hashtable_iter_value      10039350 f   janssond:hashtable.obj
 0001:00038380       _hashtable_iter_set        10039380 f   janssond:hashtable.obj
 0001:000383d0       _json_object_seed          100393d0 f   janssond:hashtable_seed.obj
 0001:00038520       _utf8_encode               10039520 f   janssond:utf.obj
 0001:00038670       _utf8_check_first          10039670 f   janssond:utf.obj
 0001:00038780       _utf8_check_full           10039780 f   janssond:utf.obj
 0001:000388d0       _utf8_iterate              100398d0 f   janssond:utf.obj
 0001:00038970       _utf8_check_string         10039970 f   janssond:utf.obj
 0001:00038a20       _jsonp_error_init          10039a20 f   janssond:error.obj
 0001:00038aa0       _jsonp_error_set_source    10039aa0 f   janssond:error.obj
 0001:00038b60       _jsonp_error_set           10039b60 f   janssond:error.obj
 0001:00038bc0       _jsonp_error_vset          10039bc0 f   janssond:error.obj
 0001:00038c60       _strbuffer_init            10039c60 f   janssond:strbuffer.obj
 0001:00038cd0       _strbuffer_close           10039cd0 f   janssond:strbuffer.obj
 0001:00038d30       _strbuffer_clear           10039d30 f   janssond:strbuffer.obj
 0001:00038d70       _strbuffer_value           10039d70 f   janssond:strbuffer.obj
 0001:00038da0       _strbuffer_steal_value     10039da0 f   janssond:strbuffer.obj
 0001:00038de0       _strbuffer_append_byte     10039de0 f   janssond:strbuffer.obj
 0001:00038e20       _strbuffer_append_bytes    10039e20 f   janssond:strbuffer.obj
 0001:00038f60       _strbuffer_pop             10039f60 f   janssond:strbuffer.obj
 0001:00038fc0       _jsonp_strtod              10039fc0 f   janssond:strconv.obj
 0001:00039130       _jsonp_dtostr              1003a130 f   janssond:strconv.obj
 0001:00039356       ??BCTString@@QBEPBDXZ      1003a356 f   EngineD:EngineD.dll
 0001:0003935c       ??1CTFileName@@QAE@XZ      1003a35c f   EngineD:EngineD.dll
 0001:00039362       ?ExpandFilePath@@YAJKABVCTFileName@@AAV1@@Z 1003a362 f   EngineD:EngineD.dll
 0001:00039368       ?NoExt@CTFileName@@QBE?AV1@XZ 1003a368 f   EngineD:EngineD.dll
 0001:0003936e       ?GetName@CTextureObject@@QAEABVCTFileName@@XZ 1003a36e f   EngineD:EngineD.dll
 0001:00039374       ??0CTFileName@@QAE@XZ      1003a374 f   EngineD:EngineD.dll
 0001:0003937a       ?shaGetUVMap@@YAPAUGFXTexCoord@@J@Z 1003a37a f   EngineD:EngineD.dll
 0001:00039380       ?shaGetNormalArray@@YAPAUGFXNormal4@@XZ 1003a380 f   EngineD:EngineD.dll
 0001:00039386       ?shaGetVertexArray@@YAPAUGFXVertex4@@XZ 1003a386 f   EngineD:EngineD.dll
 0001:0003938c       ?shaGetIndexArray@@YAPAJXZ 1003a38c f   EngineD:EngineD.dll
 0001:00039392       ?shaGetIndexCount@@YAJXZ   1003a392 f   EngineD:EngineD.dll
 0001:00039398       ?shaGetObjToAbsMatrix@@YAPAY0M@MXZ 1003a398 f   EngineD:EngineD.dll
 0001:0003939e       ?shaGetVertexCount@@YAJXZ  1003a39e f   EngineD:EngineD.dll
 0001:000393a4       ?shaGetTexture@@YAPAVCTextureObject@@J@Z 1003a3a4 f   EngineD:EngineD.dll
 0001:000393aa       ?shaGetFlags@@YAAAKXZ      1003a3aa f   EngineD:EngineD.dll
 0001:000393b0       ?shaGetColor@@YAAAKJ@Z     1003a3b0 f   EngineD:EngineD.dll
 0001:000393b6       ?shaGetFloat@@YAMJ@Z       1003a3b6 f   EngineD:EngineD.dll
 0001:000393bc       ?CurrentTick@CTimer@@QBE?BMXZ 1003a3bc f   EngineD:EngineD.dll
 0001:000393c2       ?shaGetAmbientColor@@YAAAKXZ 1003a3c2 f   EngineD:EngineD.dll
 0001:000393c8       ?shaGetLightColor@@YAAAKXZ 1003a3c8 f   EngineD:EngineD.dll
 0001:000393ce       ?shaGetLightDirection@@YAAAV?$Vector@M$02@@XZ 1003a3ce f   EngineD:EngineD.dll
 0001:000393d4       ?MakeRotationMatrix@@YAXAAV?$Matrix@M$02$02@@ABV?$Vector@M$02@@@Z 1003a3d4 f   EngineD:EngineD.dll
 0001:000393da       ??BCAnyProjection3D@@QAEPAVCProjection3D@@XZ 1003a3da f   EngineD:EngineD.dll
 0001:000393e0       ?IsPerspective@CAnyProjection3D@@QAEHXZ 1003a3e0 f   EngineD:EngineD.dll
 0001:000393e6       ?shaGetProjection@@YAPAVCAnyProjection3D@@XZ 1003a3e6 f   EngineD:EngineD.dll
 0001:000393ec       ?shaCullFace@@YAXW4GfxFace@@@Z 1003a3ec f   EngineD:EngineD.dll
 0001:000393f2       ?shaDisableBlend@@YAXXZ    1003a3f2 f   EngineD:EngineD.dll
 0001:000393f8       ?shaBlendFunc@@YAXW4GfxBlend@@0@Z 1003a3f8 f   EngineD:EngineD.dll
 0001:000393fe       ?shaEnableBlend@@YAXXZ     1003a3fe f   EngineD:EngineD.dll
 0001:00039404       ?shaDisableAlphaTest@@YAXXZ 1003a404 f   EngineD:EngineD.dll
 0001:0003940a       ?shaEnableAlphaTest@@YAXXZ 1003a40a f   EngineD:EngineD.dll
 0001:00039410       ?shaDisableDepthWrite@@YAXXZ 1003a410 f   EngineD:EngineD.dll
 0001:00039416       ?shaEnableDepthWrite@@YAXXZ 1003a416 f   EngineD:EngineD.dll
 0001:0003941c       ?shaDisableDepthTest@@YAXXZ 1003a41c f   EngineD:EngineD.dll
 0001:00039422       ?shaDepthFunc@@YAXW4GfxComp@@@Z 1003a422 f   EngineD:EngineD.dll
 0001:00039428       ?shaEnableDepthTest@@YAXXZ 1003a428 f   EngineD:EngineD.dll
 0001:0003942e       ?shaSetTextureWrapping@@YAXW4GfxWrap@@0@Z 1003a42e f   EngineD:EngineD.dll
 0001:00039434       ??4CTString@@QAEAAV0@PBD@Z 1003a434 f   EngineD:EngineD.dll
 0001:0003943a       ??0CTString@@QAE@XZ        1003a43a f   EngineD:EngineD.dll
 0001:00039440       ??1CTString@@QAE@XZ        1003a440 f   EngineD:EngineD.dll
 0001:00039446       ??0CTFileName@@QAE@PBDH@Z  1003a446 f   EngineD:EngineD.dll
 0001:0003944c       ??0CEntityProperty@@QAE@W4PropertyType@0@PAVCEntityPropertyEnumType@@KJPADDKK@Z 1003a44c f   EngineD:EngineD.dll
 0001:00039452       ??0CEntityComponent@@QAE@XZ 1003a452 f   EngineD:EngineD.dll
 0001:00039458       ??1CEntityComponent@@QAE@XZ 1003a458 f   EngineD:EngineD.dll
 0001:0003945e       ?SetDefaultProperties@CEntity@@UAEXXZ 1003a45e f   EngineD:EngineD.dll
 0001:00039464       ?PostMoving@CRationalEntity@@UAEXXZ 1003a464 f   EngineD:EngineD.dll
 0001:0003946a       ?DoMoving@CRationalEntity@@UAEXXZ 1003a46a f   EngineD:EngineD.dll
 0001:00039470       ?PreMoving@CRationalEntity@@UAEXXZ 1003a470 f   EngineD:EngineD.dll
 0001:00039476       ?ClearMovingTemp@CRationalEntity@@UAEXXZ 1003a476 f   EngineD:EngineD.dll
 0001:0003947c       ?FillEntityStatistics@CEntity@@UAEHPAUEntityStats@@@Z 1003a47c f   EngineD:EngineD.dll
 0001:00039482       ?GetEntityInfo@CEntity@@UAEPAXXZ 1003a482 f   EngineD:EngineD.dll
 0001:00039488       ?ReceiveItem@CEntity@@UAEHABVCEntityEvent@@@Z 1003a488 f   EngineD:EngineD.dll
 0001:0003948e       ?ReceiveDamage@CLiveEntity@@UAEXPAVCEntity@@W4DamageType@@MABV?$Vector@M$02@@2@Z 1003a48e f   EngineD:EngineD.dll
 0001:00039494       ?CopyForPrediction@CEntity@@UAEXAAV1@@Z 1003a494 f   EngineD:EngineD.dll
 0001:0003949a       ?AddDependentsToPrediction@CEntity@@UAEXXZ 1003a49a f   EngineD:EngineD.dll
 0001:000394a0       ?GetPredictionRange@CEntity@@UAEMXZ 1003a4a0 f   EngineD:EngineD.dll
 0001:000394a6       ?GetPredictionTime@CEntity@@UAEMXZ 1003a4a6 f   EngineD:EngineD.dll
 0001:000394ac       ?SetPredictionTime@CEntity@@UAEXM@Z 1003a4ac f   EngineD:EngineD.dll
 0001:000394b2       ?SetPredictionPair@CEntity@@UAEXPAV1@@Z 1003a4b2 f   EngineD:EngineD.dll
 0001:000394b8       ?GetPredictionPair@CEntity@@UAEPAV1@XZ 1003a4b8 f   EngineD:EngineD.dll
 0001:000394be       ?GetMaxTessellationLevel@CEntity@@UAEMXZ 1003a4be f   EngineD:EngineD.dll
 0001:000394c4       ?GetVisTweaks@CEntity@@UAEKXZ 1003a4c4 f   EngineD:EngineD.dll
 0001:000394ca       ?GetDepthSortOffset@CEntity@@UAEMXZ 1003a4ca f   EngineD:EngineD.dll
 0001:000394d0       ?MirrorAndStretch@CEntity@@UAEXMH@Z 1003a4d0 f   EngineD:EngineD.dll
 0001:000394d6       ?RenderGameView@CEntity@@UAEXPAVCDrawPort@@PAX@Z 1003a4d6 f   EngineD:EngineD.dll
 0001:000394dc       ?GetCollisionBoxParameters@CEntity@@UAEXJAAV?$AABBox@M$02@@AAJ@Z 1003a4dc f   EngineD:EngineD.dll
 0001:000394e2       ?GetCollisionBoxIndex@CEntity@@UAEJXZ 1003a4e2 f   EngineD:EngineD.dll
 0001:000394e8       ?RenderParticles@CEntity@@UAEXXZ 1003a4e8 f   EngineD:EngineD.dll
 0001:000394ee       ?GetFieldSettings@CEntity@@UAEPAVCFieldSettings@@XZ 1003a4ee f   EngineD:EngineD.dll
 0001:000394f4       ?GetModelInstanceForRendering@CEntity@@UAEPAVCModelInstance@@XZ 1003a4f4 f   EngineD:EngineD.dll
 0001:000394fa       ?GetModelForRendering@CEntity@@UAEPAVCModelObject@@XZ 1003a4fa f   EngineD:EngineD.dll
 0001:00039500       ?AdjustMipFactor@CEntity@@UAEXAAM@Z 1003a500 f   EngineD:EngineD.dll
 0001:00039506       ?AdjustShadingParameters@CEntity@@UAEHAAV?$Vector@M$02@@AAK1@Z 1003a506 f   EngineD:EngineD.dll
 0001:0003950c       ?GetAnimData@CEntity@@UAEPAVCAnimData@@J@Z 1003a50c f   EngineD:EngineD.dll
 0001:00039512       ?GetClassificationBoxStretch@CEntity@@UAE?AV?$Vector@M$02@@XZ 1003a512 f   EngineD:EngineD.dll
 0001:00039518       ?GetGradient@CEntity@@UAEHJAAVCGradientParameters@@@Z 1003a518 f   EngineD:EngineD.dll
 0001:0003951e       ?GetGradientName@CEntity@@UAEABVCTString@@J@Z 1003a51e f   EngineD:EngineD.dll
 0001:00039524       ?GetMirror@CEntity@@UAEHJAAVCMirrorParameters@@@Z 1003a524 f   EngineD:EngineD.dll
 0001:0003952a       ?GetMirrorName@CEntity@@UAEABVCTString@@J@Z 1003a52a f   EngineD:EngineD.dll
 0001:00039530       ?GetHaze@CEntity@@UAEHJAAVCHazeParameters@@AAV?$Vector@M$02@@@Z 1003a530 f   EngineD:EngineD.dll
 0001:00039536       ?GetHazeName@CEntity@@UAEABVCTString@@J@Z 1003a536 f   EngineD:EngineD.dll
 0001:0003953c       ?GetFog@CEntity@@UAEHJAAVCFogParameters@@@Z 1003a53c f   EngineD:EngineD.dll
 0001:00039542       ?GetFogName@CEntity@@UAEABVCTString@@J@Z 1003a542 f   EngineD:EngineD.dll
 0001:00039548       ?GetForceController@CEntity@@UAEPAV1@J@Z 1003a548 f   EngineD:EngineD.dll
 0001:0003954e       ?GetForce@CEntity@@UAEXJABV?$Vector@M$02@@AAVCForceStrength@@1@Z 1003a54e f   EngineD:EngineD.dll
 0001:00039554       ?GetForceName@CEntity@@UAEABVCTString@@J@Z 1003a554 f   EngineD:EngineD.dll
 0001:0003955a       ?IsTargetValid@CEntity@@UAEHJPAV1@@Z 1003a55a f   EngineD:EngineD.dll
 0001:00039560       ?GetLightSource@CEntity@@UAEPAVCLightSource@@XZ 1003a560 f   EngineD:EngineD.dll
 0001:00039566       ?DropsMarker@CEntity@@UBEHAAVCTFileName@@AAVCTString@@@Z 1003a566 f   EngineD:EngineD.dll
 0001:0003956c       ?MovesByTargetedRoute@CEntity@@UBEHAAVCTString@@@Z 1003a56c f   EngineD:EngineD.dll
 0001:00039572       ?IsImportant@CEntity@@UBEHXZ 1003a572 f   EngineD:EngineD.dll
 0001:00039578       ?IsMarker@CEntity@@UBEHXZ  1003a578 f   EngineD:EngineD.dll
 0001:0003957e       ?IsTargetable@CEntity@@UBEHXZ 1003a57e f   EngineD:EngineD.dll
 0001:00039584       ?GetTarget@CEntity@@UBEPAV1@XZ 1003a584 f   EngineD:EngineD.dll
 0001:0003958a       ?GetDescription@CEntity@@UBEABVCTString@@XZ 1003a58a f   EngineD:EngineD.dll
 0001:00039590       ?GetLerpedPlacement@CEntity@@UBE?AVCPlacement3D@@XZ 1003a590 f   EngineD:EngineD.dll
 0001:00039596       ?HandleEvent@CRationalEntity@@UAEHABVCEntityEvent@@@Z 1003a596 f   EngineD:EngineD.dll
 0001:0003959c       ?HandlerForStateAndEvent@CEntity@@UAEP81@AEHABVCEntityEvent@@@ZJJ@Z 1003a59c f   EngineD:EngineD.dll
 0001:000395a2       ?GetUsedMemory@CRationalEntity@@UAEJXZ 1003a5a2 f   EngineD:EngineD.dll
 0001:000395a8       ?GetOpacity@CEntity@@UAEMXZ 1003a5a8 f   EngineD:EngineD.dll
 0001:000395ae       ?PrintStackDebug@CRationalEntity@@UAEPBDXZ 1003a5ae f   EngineD:EngineD.dll
 0001:000395b4       ?OnEnd@CRationalEntity@@UAEXXZ 1003a5b4 f   EngineD:EngineD.dll
 0001:000395ba       ?OnInitialize@CRationalEntity@@UAEXABVCEntityEvent@@@Z 1003a5ba f   EngineD:EngineD.dll
 0001:000395c0       ?AdjustBones@CEntity@@UAEXXZ 1003a5c0 f   EngineD:EngineD.dll
 0001:000395c6       ?DumpSync_t@CRationalEntity@@UAEXAAVCTStream@@J@Z 1003a5c6 f   EngineD:EngineD.dll
 0001:000395cc       ?ChecksumForSync@CRationalEntity@@UAEXAAKJ@Z 1003a5cc f   EngineD:EngineD.dll
 0001:000395d2       ?Precache@CEntity@@UAEXXZ  1003a5d2 f   EngineD:EngineD.dll
 0001:000395d8       ?Write_t@CRationalEntity@@UAEXPAVCTStream@@@Z 1003a5d8 f   EngineD:EngineD.dll
 0001:000395de       ??4CEntity@@UAEAAV0@AAV0@@Z 1003a5de f   EngineD:EngineD.dll
 0001:000395e4       ?Copy@CRationalEntity@@UAEXAAVCEntity@@K@Z 1003a5e4 f   EngineD:EngineD.dll
 0001:000395ea       ?SetPlacement_internal@CEntity@@UAEXABVCPlacement3D@@ABV?$Matrix@M$02$02@@H@Z 1003a5ea f   EngineD:EngineD.dll
 0001:000395f0       ??1CRationalEntity@@UAE@XZ 1003a5f0 f   EngineD:EngineD.dll
 0001:000395f6       ??0CRationalEntity@@QAE@XZ 1003a5f6 f   EngineD:EngineD.dll
 0001:000395fc       ?Read_t@CRationalEntity@@UAEXPAVCTStream@@@Z 1003a5fc f   EngineD:EngineD.dll
 0001:00039602       ??1CImageInfo@@QAE@XZ      1003a602 f   EngineD:EngineD.dll
 0001:00039608       ?SaveTGA_t@CImageInfo@@QBEXABVCTFileName@@@Z 1003a608 f   EngineD:EngineD.dll
 0001:0003960e       ?GrabScreen@CDrawPort@@QBEXAAVCImageInfo@@J@Z 1003a60e f   EngineD:EngineD.dll
 0001:00039614       ??0CImageInfo@@QAE@XZ      1003a614 f   EngineD:EngineD.dll
 0001:0003961a       ?Unlock@CDrawPort@@QAEXXZ  1003a61a f   EngineD:EngineD.dll
 0001:00039620       ?RenderView@@YAXAAVCWorld@@AAVCEntity@@AAVCAnyProjection3D@@AAVCDrawPort@@@Z 1003a620 f   EngineD:EngineD.dll
 0001:00039626       ?GetWorld@CEntity@@QAEPAVCWorld@@XZ 1003a626 f   EngineD:EngineD.dll
 0001:0003962c       ?FarClipDistanceL@CProjection3D@@QAEAAMXZ 1003a62c f   EngineD:EngineD.dll
 0001:00039632       ??CCAnyProjection3D@@QAEPAVCProjection3D@@XZ 1003a632 f   EngineD:EngineD.dll
 0001:00039638       ??4CAnyProjection3D@@QAEXABVCPerspectiveProjection3D@@@Z 1003a638 f   EngineD:EngineD.dll
 0001:0003963e       ?ObjectPlacementL@CProjection3D@@QAEAAVCPlacement3D@@XZ 1003a63e f   EngineD:EngineD.dll
 0001:00039644       ??0CPlacement3D@@QAE@ABV?$Vector@M$02@@0@Z 1003a644 f   EngineD:EngineD.dll
 0001:0003964a       ?ViewerPlacementL@CProjection3D@@QAEAAVCPlacement3D@@XZ 1003a64a f   EngineD:EngineD.dll
 0001:00039650       ?ObjectStretchL@CProjection3D@@QAEAAV?$Vector@M$02@@XZ 1003a650 f   EngineD:EngineD.dll
 0001:00039656       ?AspectRatioL@CProjection3D@@QAEAAMXZ 1003a656 f   EngineD:EngineD.dll
 0001:0003965c       ?FrontClipDistanceL@CProjection3D@@QAEAAMXZ 1003a65c f   EngineD:EngineD.dll
 0001:00039662       ?ScreenBBoxL@CProjection3D@@QAEAAV?$AABBox@M$01@@XZ 1003a662 f   EngineD:EngineD.dll
 0001:00039668       ?FOVL@CPerspectiveProjection3D@@QAEAAMXZ 1003a668 f   EngineD:EngineD.dll
 0001:0003966e       ??0CPerspectiveProjection3D@@QAE@XZ 1003a66e f   EngineD:EngineD.dll
 0001:00039674       ??0CAnyProjection3D@@QAE@XZ 1003a674 f   EngineD:EngineD.dll
 0001:0003967a       ?FillZBuffer@CDrawPort@@QBEXM@Z 1003a67a f   EngineD:EngineD.dll
 0001:00039680       ?Lock@CDrawPort@@QAEHXZ    1003a680 f   EngineD:EngineD.dll
 0001:00039686       ?FreeMemory@@YAXPAX@Z      1003a686 f   EngineD:EngineD.dll
 0001:0003968c       ?_debug_AllocMemory@@YAPAXJHPBDH@Z 1003a68c f   EngineD:EngineD.dll
 0001:00039692       ?DestroyWorkCanvas@CGfxLibrary@@QAEXPAVCDrawPort@@@Z 1003a692 f   EngineD:EngineD.dll
 0001:00039698       ?CreateTexture_t@@YAXABVCTFileName@@0JJH@Z 1003a698 f   EngineD:EngineD.dll
 0001:0003969e       ??0CTFileName@@QAE@ABVCTString@@@Z 1003a69e f   EngineD:EngineD.dll
 0001:000396a4       ??HCTString@@QBE?AV0@ABV0@@Z 1003a6a4 f   EngineD:EngineD.dll
 0001:000396aa       ?CreateWorkCanvas@CGfxLibrary@@QAEXJJPAPAVCDrawPort@@@Z 1003a6aa f   EngineD:EngineD.dll
 0001:000396b0       ??4CTFileName@@QAEAAV0@ABV0@@Z 1003a6b0 f   EngineD:EngineD.dll
 0001:000396b6       ??8CTString@@QBEHPBD@Z     1003a6b6 f   EngineD:EngineD.dll
 0001:000396bc       ??0CTString@@QAE@PBD@Z     1003a6bc f   EngineD:EngineD.dll
 0001:000396c2       ??1EBegin@@UAE@XZ          1003a6c2 f   EngineD:EngineD.dll
 0001:000396c8       ?Jump@CRationalEntity@@QAEXJJHABVCEntityEvent@@@Z 1003a6c8 f   EngineD:EngineD.dll
 0001:000396ce       ??0EBegin@@QAE@XZ          1003a6ce f   EngineD:EngineD.dll
 0001:000396d4       ?SetTimerAfter@CRationalEntity@@QAEXM@Z 1003a6d4 f   EngineD:EngineD.dll
 0001:000396da       ?SetSkaModel@CEntity@@QAEHABVCTString@@@Z 1003a6da f   EngineD:EngineD.dll
 0001:000396e0       ?SetCollisionFlags@CEntity@@QAEXK@Z 1003a6e0 f   EngineD:EngineD.dll
 0001:000396e6       ?SetPhysicsFlags@CEntity@@QAEXK@Z 1003a6e6 f   EngineD:EngineD.dll
 0001:000396ec       ?InitAsSkaEditorModel@CEntity@@QAEXXZ 1003a6ec f   EngineD:EngineD.dll
 0001:000396f2       ??1EInternal@@UAE@XZ       1003a6f2 f   EngineD:EngineD.dll
 0001:000396f8       ??0EInternal@@QAE@XZ       1003a6f8 f   EngineD:EngineD.dll
 0001:000396fe       ?SetTimerAt@CRationalEntity@@QAEXM@Z 1003a6fe f   EngineD:EngineD.dll
 0001:00039704       ??1EVoid@@UAE@XZ           1003a704 f   EngineD:EngineD.dll
 0001:0003970a       ?Return@CRationalEntity@@QAEXJABVCEntityEvent@@@Z 1003a70a f   EngineD:EngineD.dll
 0001:00039710       ??0EVoid@@QAE@XZ           1003a710 f   EngineD:EngineD.dll
 0001:00039716       ??1CEntityEvent@@UAE@XZ    1003a716 f   EngineD:EngineD.dll
 0001:0003971c       ??0CTString@@QAE@ABV0@@Z   1003a71c f   EngineD:EngineD.dll
 0001:00039722       ??0CEntityEvent@@QAE@ABV0@@Z 1003a722 f   EngineD:EngineD.dll
 0001:00039728       ??4CTString@@QAEAAV0@ABV0@@Z 1003a728 f   EngineD:EngineD.dll
 0001:0003972e       ??4CEntityEvent@@QAEAAV0@ABV0@@Z 1003a72e f   EngineD:EngineD.dll
 0001:00039734       ?AddReference@CEntity@@QAEXXZ 1003a734 f   EngineD:EngineD.dll
 0001:0003973a       ?RemReference@CEntity@@QAEXXZ 1003a73a f   EngineD:EngineD.dll
 0001:00039740       ?Read_t@CTStream@@QAEXPAXJ@Z 1003a740 f   EngineD:EngineD.dll
 0001:00039746       ?ExpectID_t@CTStream@@QAEXABVCChunkID@@@Z 1003a746 f   EngineD:EngineD.dll
 0001:0003974c       ??0CChunkID@@QAE@PBD@Z     1003a74c f   EngineD:EngineD.dll
 0001:00039752       ?Length@CTString@@QBEJXZ   1003a752 f   EngineD:EngineD.dll
 0001:00039758       ?Write_t@CTStream@@QAEXPBXJ@Z 1003a758 f   EngineD:EngineD.dll
 0001:0003975e       ?WriteID_t@CTStream@@QAEXABVCChunkID@@@Z 1003a75e f   EngineD:EngineD.dll
 0001:00039764       ?FileName@CTFileName@@QBE?AV1@XZ 1003a764 f   EngineD:EngineD.dll
 0001:0003976a       ?AnglesToDirectionVector@@YAXABV?$Vector@M$02@@AAV1@@Z 1003a76a f   EngineD:EngineD.dll
 0001:00039770       ?ModelChangeNotify@CEntity@@QAEXXZ 1003a770 f   EngineD:EngineD.dll
 0001:00039776       ?StretchModel@CModelInstance@@QAEXAAV?$Vector@M$02@@@Z 1003a776 f   EngineD:EngineD.dll
 0001:0003977c       ?GetModelInstance@CEntity@@QAEPAVCModelInstance@@XZ 1003a77c f   EngineD:EngineD.dll
 0001:00039782       ?PrintF@CTString@@QAAJPBDZZ 1003a782 f   EngineD:EngineD.dll
 0001:00039788       ?SetFlags@CEntity@@QAEXK@Z 1003a788 f   EngineD:EngineD.dll
 0001:0003978e       ?GetFlags@CEntity@@QBEKXZ  1003a78e f   EngineD:EngineD.dll
 0001:00039794       ?WarningMessage@@YAXPBDZZ  1003a794 f   EngineD:EngineD.dll
 0001:0003979a       ?Translate@@YAPADPADJ@Z    1003a79a f   EngineD:EngineD.dll
 0001:000397a0       ?SetSkaModel_t@CEntity@@QAEXABVCTString@@@Z 1003a7a0 f   EngineD:EngineD.dll
 0001:000397a6       ?InitAsSkaModel@CEntity@@QAEXXZ 1003a7a6 f   EngineD:EngineD.dll
 0001:000397ac       ?Destroy@CEntity@@QAEXXZ   1003a7ac f   EngineD:EngineD.dll
 0001:000397b2       ?SendEvent@CEntity@@QAEXABVCEntityEvent@@@Z 1003a7b2 f   EngineD:EngineD.dll
 0001:000397b8       ?StopAllAnimations@CModelInstance@@QAEXM@Z 1003a7b8 f   EngineD:EngineD.dll
 0001:000397be       ?RemAnimsWithID@CModelInstance@@QAEXJ@Z 1003a7be f   EngineD:EngineD.dll
 0001:000397c4       ?RemAnimation@CModelInstance@@QAEXJ@Z 1003a7c4 f   EngineD:EngineD.dll
 0001:000397ca       ?AddAnimation@CModelInstance@@QAEXJKMJM@Z 1003a7ca f   EngineD:EngineD.dll
 0001:000397d0       ?ska_GetIDFromStringTable@@YAJVCTString@@@Z 1003a7d0 f   EngineD:EngineD.dll
 0001:000397d6       ?SwitchToEditorModel@CEntity@@QAEXXZ 1003a7d6 f   EngineD:EngineD.dll
 0001:000397dc       ?SwitchToModel@CEntity@@QAEXXZ 1003a7dc f   EngineD:EngineD.dll
 0001:000397e2       ?IterationHead@CListHead@@QBEAAVCListNode@@XZ 1003a7e2 f   EngineD:EngineD.dll
 0001:000397e8       ?IterationSucc@CListNode@@QBEAAV1@XZ 1003a7e8 f   EngineD:EngineD.dll
 0001:000397ee       ?IsTailMarker@CListNode@@QBEHXZ 1003a7ee f   EngineD:EngineD.dll
 0001:000397f4       ??0CEntityComponent@@QAE@W4EntityComponentType@@KPAD@Z 1003a7f4 f   EngineD:EngineD.dll
 0001:000397fa       ?AdjustShaderParams@CEntity@@UAEXJPAVCShader@@AAUShaderParams@@@Z 1003a7fa f   EngineD:EngineD.dll
 0001:00039800       ?ClearToDefault@@YAXAAJ@Z  1003a800 f   EngineD:EngineD.dll
 0001:00039806       ?ClearToDefault@@YAXAAM@Z  1003a806 f   EngineD:EngineD.dll
 0001:0003980c       ?ClearToDefault@@YAXAAK@Z  1003a80c f   EngineD:EngineD.dll
 0001:00039812       ?ClearToDefault@@YAXAAVCTString@@@Z 1003a812 f   EngineD:EngineD.dll
 0001:00039818       ??0CEntityEvent@@QAE@J@Z   1003a818 f   EngineD:EngineD.dll
 0001:0003981e       ?SetModelMainTexture@CEntity@@QAEXJ@Z 1003a81e f   EngineD:EngineD.dll
 0001:00039824       ?SetModel@CEntity@@QAEXJ@Z 1003a824 f   EngineD:EngineD.dll
 0001:0003982a       ?InitAsEditorModel@CEntity@@QAEXXZ 1003a82a f   EngineD:EngineD.dll
 0001:00039830       ?CPrintF@@YAXPBDZZ         1003a830 f   EngineD:EngineD.dll
 0001:00039836       ?IsDerivedFromClass@@YAHPAVCEntity@@PBD@Z 1003a836 f   EngineD:EngineD.dll
 0001:0003983c       ?FileRequester@CEngineGUI@@QAE?AVCTFileName@@PAD00VCTString@@1PAV?$CDynamicArray@VCTFileName@@@@H@Z 1003a83c f   EngineGUID:EngineGUID.dll
 0001:00039842       _glewInit                  1003a842 f   glew32:glew32.dll
 0001:00039848       _glewGetExtension          1003a848 f   glew32:glew32.dll
 0001:0003984e       _glDeleteTextures@8        1003a84e f   opengl32:OPENGL32.dll
 0001:00039854       _glTexImage2D@36           1003a854 f   opengl32:OPENGL32.dll
 0001:0003985a       _glTexParameterf@12        1003a85a f   opengl32:OPENGL32.dll
 0001:00039860       _glGetFloatv@8             1003a860 f   opengl32:OPENGL32.dll
 0001:00039866       _glTexParameteri@12        1003a866 f   opengl32:OPENGL32.dll
 0001:0003986c       _glBindTexture@8           1003a86c f   opengl32:OPENGL32.dll
 0001:00039872       _glGenTextures@8           1003a872 f   opengl32:OPENGL32.dll
 0001:00039878       _glGetIntegerv@8           1003a878 f   opengl32:OPENGL32.dll
 0001:0003987e       _glDrawElements@16         1003a87e f   opengl32:OPENGL32.dll
 0001:00039884       _MessageBoxA@16            1003a884 f   User32:USER32.dll
 0001:0003988a       _GetActiveWindow@0         1003a88a f   User32:USER32.dll
 0001:00039890       ?MakeCopy@EChangeAnim@@UAEPAVCEntityEvent@@XZ 1003a890 f   EntitiesMPD:EntitiesMPD.dll
 0001:00039896       ??0EChangeAnim@@QAE@XZ     1003a896 f   EntitiesMPD:EntitiesMPD.dll
 0001:0003989c       ?MakeCopy@ESpawnSpray@@UAEPAVCEntityEvent@@XZ 1003a89c f   EntitiesMPD:EntitiesMPD.dll
 0001:000398a2       ??0ESpawnSpray@@QAE@XZ     1003a8a2 f   EntitiesMPD:EntitiesMPD.dll
 0001:000398a8       ?MakeCopy@ESpawnEffect@@UAEPAVCEntityEvent@@XZ 1003a8a8 f   EntitiesMPD:EntitiesMPD.dll
 0001:000398ae       ??0ESpawnEffect@@QAE@XZ    1003a8ae f   EntitiesMPD:EntitiesMPD.dll
 0001:000398b4       ?MakeCopy@ESpawnDebris@@UAEPAVCEntityEvent@@XZ 1003a8b4 f   EntitiesMPD:EntitiesMPD.dll
 0001:000398ba       ??0ESpawnDebris@@QAE@XZ    1003a8ba f   EntitiesMPD:EntitiesMPD.dll
 0001:000398c0       ?MakeCopy@ERangeModelDestruction@@UAEPAVCEntityEvent@@XZ 1003a8c0 f   EntitiesMPD:EntitiesMPD.dll
 0001:000398c6       ??0ERangeModelDestruction@@QAE@XZ 1003a8c6 f   EntitiesMPD:EntitiesMPD.dll
 0001:000398cc       __chkesp                   1003a8cc f   MSVCRTD:MSVCRTD.dll
 0001:000398e0       _atan                      1003a8e0 f   MSVCRTD:MSVCRTD.dll
 0001:000398e6       _tan                       1003a8e6 f   MSVCRTD:MSVCRTD.dll
 0001:000398f0       __onexit                   1003a8f0 f   MSVCRTD:atonexit.obj
 0001:00039930       _atexit                    1003a930 f   MSVCRTD:atonexit.obj
 0001:00039948       ___CxxFrameHandler         1003a948 f   MSVCRTD:MSVCRTD.dll
 0001:0003994e       ??0exception@@QAE@ABV0@@Z  1003a94e f   MSVCRTD:MSVCRTD.dll
 0001:00039960       ??0type_info@@AAE@ABV0@@Z  1003a960 f   MSVCRTD:ti_inst.obj
 0001:00039980       ??_Gtype_info@@UAEPAXI@Z   1003a980 f i MSVCRTD:ti_inst.obj
 0001:00039980       ??_Etype_info@@UAEPAXI@Z   1003a980 f i MSVCRTD:ti_inst.obj
 0001:000399b0       ??4type_info@@AAEAAV0@ABV0@@Z 1003a9b0 f   MSVCRTD:ti_inst.obj
 0001:000399c0       __CxxThrowException@8      1003a9c0 f   MSVCRTD:MSVCRTD.dll
 0001:000399c6       ??3@YAXPAX@Z               1003a9c6 f   MSVCRTD:MSVCRTD.dll
 0001:000399cc       _memcpy                    1003a9cc f   MSVCRTD:MSVCRTD.dll
 0001:000399d2       ??2@YAPAXIHPBDH@Z          1003a9d2 f   MSVCRTD:MSVCRTD.dll
 0001:000399d8       _sqrt                      1003a9d8 f   MSVCRTD:MSVCRTD.dll
 0001:000399de       __assert                   1003a9de f   MSVCRTD:MSVCRTD.dll
 0001:000399e4       ??2@YAPAXI@Z               1003a9e4 f   MSVCRTD:MSVCRTD.dll
 0001:000399f0       ??_L@YGXPAXIHP6EX0@Z1@Z    1003a9f0 f   MSVCRTD:ehvecctr.obj
 0001:00039a90       ??_M@YGXPAXIHP6EX0@Z@Z     1003aa90 f   MSVCRTD:ehvecdtr.obj
 0001:00039b40       ?__ArrayUnwind@@YGXPAXIHP6EX0@Z@Z 1003ab40 f   MSVCRTD:ehvecdtr.obj
 0001:00039bec       _sprintf                   1003abec f   MSVCRTD:MSVCRTD.dll
 0001:00039bf2       _fread                     1003abf2 f   MSVCRTD:MSVCRTD.dll
 0001:00039bf8       _fseek                     1003abf8 f   MSVCRTD:MSVCRTD.dll
 0001:00039bfe       _free                      1003abfe f   MSVCRTD:MSVCRTD.dll
 0001:00039c04       _fclose                    1003ac04 f   MSVCRTD:MSVCRTD.dll
 0001:00039c0a       _fopen                     1003ac0a f   MSVCRTD:MSVCRTD.dll
 0001:00039c10       _memset                    1003ac10 f   MSVCRTD:MSVCRTD.dll
 0001:00039c16       _malloc                    1003ac16 f   MSVCRTD:MSVCRTD.dll
 0001:00039c1c       _pow                       1003ac1c f   MSVCRTD:MSVCRTD.dll
 0001:00039c22       _ftell                     1003ac22 f   MSVCRTD:MSVCRTD.dll
 0001:00039c28       _fabs                      1003ac28 f   MSVCRTD:MSVCRTD.dll
 0001:00039c30       __CRT_INIT@12              1003ac30 f   MSVCRTD:crtdll.obj
 0001:00039d40       __DllMainCRTStartup@12     1003ad40 f   MSVCRTD:crtdll.obj
 0001:00039e34       _strlen                    1003ae34 f   MSVCRTD:MSVCRTD.dll
 0001:00039e3a       _memmove                   1003ae3a f   MSVCRTD:MSVCRTD.dll
 0001:00039e40       __vsnprintf                1003ae40 f   MSVCRTD:MSVCRTD.dll
 0001:00039e46       _memcmp                    1003ae46 f   MSVCRTD:MSVCRTD.dll
 0001:00039e4c       __snprintf                 1003ae4c f   MSVCRTD:MSVCRTD.dll
 0001:00039e52       _strcmp                    1003ae52 f   MSVCRTD:MSVCRTD.dll
 0001:00039e58       _strtol                    1003ae58 f   MSVCRTD:MSVCRTD.dll
 0001:00039e5e       __errno                    1003ae5e f   MSVCRTD:MSVCRTD.dll
 0001:00039e64       _memchr                    1003ae64 f   MSVCRTD:MSVCRTD.dll
 0001:00039e6a       _fgetc                     1003ae6a f   MSVCRTD:MSVCRTD.dll
 0001:00039e70       _strerror                  1003ae70 f   MSVCRTD:MSVCRTD.dll
 0001:00039e76       _strncpy                   1003ae76 f   MSVCRTD:MSVCRTD.dll
 0001:00039e7c       _time                      1003ae7c f   MSVCRTD:MSVCRTD.dll
 0001:00039e82       _strtod                    1003ae82 f   MSVCRTD:MSVCRTD.dll
 0001:00039e88       _strchr                    1003ae88 f   MSVCRTD:MSVCRTD.dll
 0001:00039e8e       _localeconv                1003ae8e f   MSVCRTD:MSVCRTD.dll
 0001:00039e94       ___dllonexit               1003ae94 f   MSVCRTD:MSVCRTD.dll
 0001:00039e9a       ??1type_info@@UAE@XZ       1003ae9a f   MSVCRTD:MSVCRTD.dll
 0001:00039ea0       __except_handler3          1003aea0 f   MSVCRTD:MSVCRTD.dll
 0001:00039ea6       ?terminate@@YAXXZ          1003aea6 f   MSVCRTD:MSVCRTD.dll
 0001:00039eac       __free_dbg                 1003aeac f   MSVCRTD:MSVCRTD.dll
 0001:00039eb2       __initterm                 1003aeb2 f   MSVCRTD:MSVCRTD.dll
 0001:00039eb8       __malloc_dbg               1003aeb8 f   MSVCRTD:MSVCRTD.dll
 0001:00039ec0       _DllMain@12                1003aec0 f   MSVCRTD:dllmain.obj
 0001:00039ee6       ?c_str@?$basic_string@DU?$char_traits@D@std@@V?$allocator@D@2@@std@@QBEPBDXZ 1003aee6 f   msvcprtd:MSVCP60D.dll
 0001:00039eec       ??1?$basic_string@DU?$char_traits@D@std@@V?$allocator@D@2@@std@@QAE@XZ 1003aeec f   msvcprtd:MSVCP60D.dll
 0001:00039ef2       ??Hstd@@YA?AV?$basic_string@DU?$char_traits@D@std@@V?$allocator@D@2@@0@ABV10@PBD@Z 1003aef2 f   msvcprtd:MSVCP60D.dll
 0001:00039ef8       ??0?$basic_string@DU?$char_traits@D@std@@V?$allocator@D@2@@std@@QAE@PBDABV?$allocator@D@1@@Z 1003aef8 f   msvcprtd:MSVCP60D.dll
 0001:00039efe       ??0runtime_error@std@@QAE@ABV01@@Z 1003aefe f   msvcprtd:MSVCP60D.dll
 0001:00039f04       ??1runtime_error@std@@UAE@XZ 1003af04 f   msvcprtd:MSVCP60D.dll
 0001:00039f0a       ??0runtime_error@std@@QAE@ABV?$basic_string@DU?$char_traits@D@std@@V?$allocator@D@2@@1@@Z 1003af0a f   msvcprtd:MSVCP60D.dll
 0001:00039f10       ??1_Lockit@std@@QAE@XZ     1003af10 f   msvcprtd:MSVCP60D.dll
 0001:00039f16       ??0_Lockit@std@@QAE@XZ     1003af16 f   msvcprtd:MSVCP60D.dll
 0001:00039f1c       ??0logic_error@std@@QAE@ABV01@@Z 1003af1c f   msvcprtd:MSVCP60D.dll
 0001:00039f22       ??0out_of_range@std@@QAE@ABV01@@Z 1003af22 f   msvcprtd:MSVCP60D.dll
 0001:00039f28       ??1out_of_range@std@@UAE@XZ 1003af28 f   msvcprtd:MSVCP60D.dll
 0001:00039f2e       ??0out_of_range@std@@QAE@ABV?$basic_string@DU?$char_traits@D@std@@V?$allocator@D@2@@1@@Z 1003af2e f   msvcprtd:MSVCP60D.dll
 0001:00039f34       ??4?$basic_string@DU?$char_traits@D@std@@V?$allocator@D@2@@std@@QAEAAV01@ABV01@@Z 1003af34 f   msvcprtd:MSVCP60D.dll
 0001:00039f3a       ??0?$basic_string@DU?$char_traits@D@std@@V?$allocator@D@2@@std@@QAE@ABV01@@Z 1003af3a f   msvcprtd:MSVCP60D.dll
 0001:00039f40       ?empty@?$basic_string@DU?$char_traits@D@std@@V?$allocator@D@2@@std@@QBE_NXZ 1003af40 f   msvcprtd:MSVCP60D.dll
 0001:00039f46       ??_D?$basic_ifstream@DU?$char_traits@D@std@@@std@@QAEXXZ 1003af46 f   msvcprtd:MSVCP60D.dll
 0001:00039f4c       ??4?$basic_string@DU?$char_traits@D@std@@V?$allocator@D@2@@std@@QAEAAV01@PBD@Z 1003af4c f   msvcprtd:MSVCP60D.dll
 0001:00039f52       ?close@?$basic_ifstream@DU?$char_traits@D@std@@@std@@QAEXXZ 1003af52 f   msvcprtd:MSVCP60D.dll
 0001:00039f58       ??5std@@YAAAV?$basic_istream@DU?$char_traits@D@std@@@0@AAV10@AAV?$basic_string@DU?$char_traits@D@std@@V?$allocator@D@2@@0@@Z 1003af58 f   msvcprtd:MSVCP60D.dll
 0001:00039f5e       ?is_open@?$basic_ifstream@DU?$char_traits@D@std@@@std@@QBE_NXZ 1003af5e f   msvcprtd:MSVCP60D.dll
 0001:00039f64       ?open@?$basic_ifstream@DU?$char_traits@D@std@@@std@@QAEXPBDH@Z 1003af64 f   msvcprtd:MSVCP60D.dll
 0001:00039f6a       ??0?$basic_ifstream@DU?$char_traits@D@std@@@std@@QAE@XZ 1003af6a f   msvcprtd:MSVCP60D.dll
 0001:00039f70       ??8std@@YA_NABV?$basic_string@DU?$char_traits@D@std@@V?$allocator@D@2@@0@PBD@Z 1003af70 f   msvcprtd:MSVCP60D.dll
 0001:00039f76       ??Y?$basic_string@DU?$char_traits@D@std@@V?$allocator@D@2@@std@@QAEAAV01@PBD@Z 1003af76 f   msvcprtd:MSVCP60D.dll
 0001:00039f7c       ??Y?$basic_string@DU?$char_traits@D@std@@V?$allocator@D@2@@std@@QAEAAV01@D@Z 1003af7c f   msvcprtd:MSVCP60D.dll
 0001:00039f82       ??Hstd@@YA?AV?$basic_string@DU?$char_traits@D@std@@V?$allocator@D@2@@0@ABV10@0@Z 1003af82 f   msvcprtd:MSVCP60D.dll
 0001:00039f88       ?read@?$basic_istream@DU?$char_traits@D@std@@@std@@QAEAAV12@PADH@Z 1003af88 f   msvcprtd:MSVCP60D.dll
 0001:00039f8e       ?tellg@?$basic_istream@DU?$char_traits@D@std@@@std@@QAE?AV?$fpos@H@2@XZ 1003af8e f   msvcprtd:MSVCP60D.dll
 0001:00039f94       ?seekg@?$basic_istream@DU?$char_traits@D@std@@@std@@QAEAAV12@JW4seekdir@ios_base@2@@Z 1003af94 f   msvcprtd:MSVCP60D.dll
 0001:00039f9a       ??6std@@YAAAV?$basic_ostream@DU?$char_traits@D@std@@@0@AAV10@ABV?$basic_string@DU?$char_traits@D@std@@V?$allocator@D@2@@0@@Z 1003af9a f   msvcprtd:MSVCP60D.dll
 0001:00039fa0       ??6std@@YAAAV?$basic_ostream@DU?$char_traits@D@std@@@0@AAV10@PBD@Z 1003afa0 f   msvcprtd:MSVCP60D.dll
 0001:00039fa6       ?is_open@?$basic_ofstream@DU?$char_traits@D@std@@@std@@QBE_NXZ 1003afa6 f   msvcprtd:MSVCP60D.dll
 0001:00039fac       ??0?$basic_string@DU?$char_traits@D@std@@V?$allocator@D@2@@std@@QAE@ABV?$allocator@D@1@@Z 1003afac f   msvcprtd:MSVCP60D.dll
 0001:00039fb2       ??_D?$basic_ofstream@DU?$char_traits@D@std@@@std@@QAEXXZ 1003afb2 f   msvcprtd:MSVCP60D.dll
 0001:00039fb8       ?open@?$basic_ofstream@DU?$char_traits@D@std@@@std@@QAEXPBDH@Z 1003afb8 f   msvcprtd:MSVCP60D.dll
 0001:00039fbe       ??0?$basic_ofstream@DU?$char_traits@D@std@@@std@@QAE@XZ 1003afbe f   msvcprtd:MSVCP60D.dll
 0001:00039fc4       ??6?$basic_ostream@DU?$char_traits@D@std@@@std@@QAEAAV01@H@Z 1003afc4 f   msvcprtd:MSVCP60D.dll
 0001:00039fca       _SwitchToThread@0          1003afca f   kernel32:KERNEL32.dll
 0001:00039fd0       _InterlockedIncrement@4    1003afd0 f   kernel32:KERNEL32.dll
 0001:00039fd6       _GetCurrentProcessId@0     1003afd6 f   kernel32:KERNEL32.dll
 0001:00039fdc       _DisableThreadLibraryCalls@4 1003afdc f   kernel32:KERNEL32.dll
 0001:0003f880       __enc$textbss$begin        10040880     <linker-defined>
 0001:0005d880       __enc$textbss$end          1005e880     <linker-defined>
 0002:00000020       __real@4@3ffe8000000000000000 1005f020     RenderSession.obj
 0002:00000024       __real@4@3fff8000000000000000 1005f024     RenderSession.obj
 0002:00000028       __real@4@3ff98efa350000000000 1005f028     RenderSession.obj
 0002:0000002c       __real@4@00000000000000000000 1005f02c     RenderSession.obj
 0002:00000030       __real@4@4006ff00000000000000 1005f030     RenderSession.obj
 0002:00000034       __real@4@4005fe00000000000000 1005f034     RenderSession.obj
 0002:00000038       __real@4@40008000000000000000 1005f038     RenderSession.obj
 0002:0000004c       ??_7GLCubeMapBaker@@6B@    1005f04c     GLCubeMapBaker.obj
 0002:000001a4       ??_7EGLMHChangeAnim@@6B@   1005f1a4     GLModelHolder.obj
 0002:000001b0       ??_7EGLMHRemoveAnim@@6B@   1005f1b0     GLModelHolder.obj
 0002:000001bc       ??_7EGLMHRemoveAnimsID@@6B@ 1005f1bc     GLModelHolder.obj
 0002:000001c8       ??_7EGLMHStopAllAnims@@6B@ 1005f1c8     GLModelHolder.obj
 0002:000001d4       ??_7EChangeAnim@@6B@       1005f1d4     GLModelHolder.obj
 0002:000001e0       ??_7ESpawnSpray@@6B@       1005f1e0     GLModelHolder.obj
 0002:000001ec       ??_7ESpawnEffect@@6B@      1005f1ec     GLModelHolder.obj
 0002:000001f8       ??_7ESpawnDebris@@6B@      1005f1f8     GLModelHolder.obj
 0002:00000204       ??_7ERangeModelDestruction@@6B@ 1005f204     GLModelHolder.obj
 0002:00000210       ??_7GLModelHolder@@6B@     1005f210     GLModelHolder.obj
 0002:00000364       __real@4@4008fa00000000000000 1005f364     GLModelHolder.obj
 0002:00000368       __real@4@3ff8a3d70a0000000000 1005f368     GLModelHolder.obj
 0002:00000370       ??_7GLModelHolderAnimationChanger@@6B@ 1005f370     GLModelHolderAnimationChanger.obj
 0002:000004c4       ??_C@_00A@?$AA@            1005f4c4     janssond:value.obj
 0002:000004c8       __real@8@00000000000000000000 1005f4c8     janssond:value.obj
 0002:000004d0       ??_C@_0BA@BJKB@wrong?5arguments?$AA@ 1005f4d0     janssond:load.obj
 0002:000004e0       ??_C@_08JAOD@?$DMstring?$DO?$AA@ 1005f4e0     janssond:load.obj
 0002:000004ec       ??_C@_02DILL@?$CFs?$AA@    1005f4ec     janssond:load.obj
 0002:000004f0       ??_C@_0BE@IKBA@?$CFs?5near?5end?5of?5file?$AA@ 1005f4f0     janssond:load.obj
 0002:00000504       ??_C@_0N@JEN@?$CFs?5near?5?8?$CFs?8?$AA@ 1005f504     janssond:load.obj
 0002:00000514       ??_C@_0BF@GKKE@end?5of?5file?5expected?$AA@ 1005f514     janssond:load.obj
 0002:0000052c       ??_C@_0BE@MMAK@?8?$FL?8?5or?5?8?$HL?8?5expected?$AA@ 1005f52c     janssond:load.obj
 0002:00000540       ??_C@_04GOCP@null?$AA@     1005f540     janssond:load.obj
 0002:00000548       ??_C@_05NAGO@false?$AA@    1005f548     janssond:load.obj
 0002:00000550       ??_C@_04NCCD@true?$AA@     1005f550     janssond:load.obj
 0002:00000558       ??_C@_0BL@LCHE@unable?5to?5decode?5byte?50x?$CFx?$AA@ 1005f558     janssond:load.obj
 0002:00000574       ??_C@_0L@FCLM@count?5?$DO?$DN?52?$AA@ 1005f574     janssond:load.obj
 0002:00000580       ??_C@_0GE@HILI@c?3?2games?2steam?2steamapps?2common?2@ 1005f580     janssond:load.obj
 0002:000005e4       ??_C@_06GCMG@c?5?$DN?$DN?5d?$AA@ 1005f5e4     janssond:load.obj
 0002:000005ec       ??_C@_0CI@BGHO@stream?9?$DObuffer?$FLstream?9?$DObuffer_po@ 1005f5ec     janssond:load.obj
 0002:00000614       ??_C@_0BH@DDIG@stream?9?$DObuffer_pos?5?$DO?50?$AA@ 1005f614     janssond:load.obj
 0002:0000062c       ??_C@_01PLJA@0?$AA@        1005f62c     janssond:load.obj
 0002:00000630       ??_C@_0BJ@NGAG@invalid?5Unicode?5?8?2u?$CF04X?8?$AA@ 1005f630     janssond:load.obj
 0002:0000064c       ??_C@_0BP@EAJB@invalid?5Unicode?5?8?2u?$CF04X?2u?$CF04X?8?$AA@ 1005f64c     janssond:load.obj
 0002:0000066c       ??_C@_0BO@LMPL@invalid?5Unicode?5escape?5?8?$CF?46s?8?$AA@ 1005f66c     janssond:load.obj
 0002:0000068c       ??_C@_0P@GDHA@invalid?5escape?$AA@ 1005f68c     janssond:load.obj
 0002:0000069c       ??_C@_0BH@LIFO@control?5character?50x?$CFx?$AA@ 1005f69c     janssond:load.obj
 0002:000006b4       ??_C@_0BD@OLNG@unexpected?5newline?$AA@ 1005f6b4     janssond:load.obj
 0002:000006c8       ??_C@_0BH@KACL@premature?5end?5of?5input?$AA@ 1005f6c8     janssond:load.obj
 0002:000006e0       ??_C@_0O@OACG@str?$FL0?$FN?5?$DN?$DN?5?8u?8?$AA@ 1005f6e0     janssond:load.obj
 0002:000006f0       ??_C@_0BF@NDAJ@real?5number?5overflow?$AA@ 1005f6f0     janssond:load.obj
 0002:00000708       ??_C@_0CL@LKPC@end?5?$DN?$DN?5saved_text?5?$CL?5lex?9?$DOsaved_t@ 1005f708     janssond:load.obj
 0002:00000734       ??_C@_0BA@LJEN@too?5big?5integer?$AA@ 1005f734     janssond:load.obj
 0002:00000744       ??_C@_0BJ@JKBG@too?5big?5negative?5integer?$AA@ 1005f744     janssond:load.obj
 0002:00000760       ??_C@_0BB@PFFC@unexpected?5token?$AA@ 1005f760     janssond:load.obj
 0002:00000774       ??_C@_0O@BLCG@invalid?5token?$AA@ 1005f774     janssond:load.obj
 0002:00000784       ??_C@_0CN@BFLG@?2u0000?5is?5not?5allowed?5without?5JS@ 1005f784     janssond:load.obj
 0002:000007b4       ??_C@_0BO@PIEL@maximum?5parsing?5depth?5reached?$AA@ 1005f7b4     janssond:load.obj
 0002:000007d4       ??_C@_0N@JKIB@?8?$HN?8?5expected?$AA@ 1005f7d4     janssond:load.obj
 0002:000007e4       ??_C@_0N@KMNO@?8?3?8?5expected?$AA@ 1005f7e4     janssond:load.obj
 0002:000007f4       ??_C@_0BF@IKMJ@duplicate?5object?5key?$AA@ 1005f7f4     janssond:load.obj
 0002:0000080c       ??_C@_0CF@HBAH@NUL?5byte?5in?5object?5key?5not?5suppo@ 1005f80c     janssond:load.obj
 0002:00000834       ??_C@_0BH@DMFA@string?5or?5?8?$HN?8?5expected?$AA@ 1005f834     janssond:load.obj
 0002:0000084c       ??_C@_0N@MLHJ@?8?$FN?8?5expected?$AA@ 1005f84c     janssond:load.obj
 0002:0000085c       ??_C@_08NAEF@?$DMbuffer?$DO?$AA@ 1005f85c     janssond:load.obj
 0002:00000868       ??_C@_08JJOO@?$DMstream?$DO?$AA@ 1005f868     janssond:load.obj
 0002:00000874       ??_C@_07MBJB@?$DMstdin?$DO?$AA@ 1005f874     janssond:load.obj
 0002:0000087c       ??_C@_0BG@CHBJ@unable?5to?5open?5?$CFs?3?5?$CFs?$AA@ 1005f87c     janssond:load.obj
 0002:00000894       ??_C@_02JKAF@rb?$AA@       1005f894     janssond:load.obj
 0002:00000898       ??_C@_0L@GDB@?$DMcallback?$DO?$AA@ 1005f898     janssond:load.obj
 0002:000008a4       ??_C@_03NAME@?4?4?4?$AA@   1005f8a4     janssond:error.obj
 0002:000008a8       ??_C@_0CM@OFLM@end?5?$DN?$DN?5strbuffer?9?$DOvalue?5?$CL?5strbuf@ 1005f8a8     janssond:strconv.obj
 0002:000008d4       ??_C@_0GH@HFAI@c?3?2games?2steam?2steamapps?2common?2@ 1005f8d4     janssond:strconv.obj
 0002:0000093c       ??_C@_04MLNJ@?$CF?4?$CKg?$AA@ 1005f93c     janssond:strconv.obj
 0002:00000948       ??_7type_info@@6B@         1005f948     MSVCRTD:ti_inst.obj
 0002:0000097c       ??_C@_08JKC@crtdll?4c?$AA@ 1005f97c     MSVCRTD:crtdll.obj
 0002:00000b98       ??_R1A@?0A@A@type_info@@8  1005fb98     MSVCRTD:ti_inst.obj
 0002:00000bb0       ??_R2type_info@@8          1005fbb0     MSVCRTD:ti_inst.obj
 0002:00000bb8       ??_R3type_info@@8          1005fbb8     MSVCRTD:ti_inst.obj
 0002:00000bc8       ??_R4type_info@@6B@        1005fbc8     MSVCRTD:ti_inst.obj
 0002:00000f78       __CT??_R0?AVexception@@@8??0exception@@QAE@ABV0@@Z12 1005ff78     RenderSession.obj
 0002:00000f98       __CT??_R0?AVruntime_error@std@@@8??0runtime_error@std@@QAE@ABV01@@Z28 1005ff98     RenderSession.obj
 0002:00000fb8       __CTA2?AVruntime_error@std@@ 1005ffb8     RenderSession.obj
 0002:00000fc8       __TI2?AVruntime_error@std@@ 1005ffc8     RenderSession.obj
 0002:00001010       __CT??_R0?AVlogic_error@std@@@8??0logic_error@std@@QAE@ABV01@@Z28 10060010     RenderSession.obj
 0002:00001030       __CT??_R0?AVout_of_range@std@@@8??0out_of_range@std@@QAE@ABV01@@Z28 10060030     RenderSession.obj
 0002:00001050       __CTA3?AVout_of_range@std@@ 10060050     RenderSession.obj
 0002:00001068       __TI3?AVout_of_range@std@@ 10060068     RenderSession.obj
 0003:00000000       ___xc_a                    10064000     MSVCRTD:cinitexe.obj
 0003:00000260       ___xc_z                    10064260     MSVCRTD:cinitexe.obj
 0003:00000364       ___xi_a                    10064364     MSVCRTD:cinitexe.obj
 0003:00000468       ___xi_z                    10064468     MSVCRTD:cinitexe.obj
 0003:00000570       ?g_currentSession@?%C:\GAMES\STEAM\STEAMAPPS\COMMON\SERIOUS SAM CLASSIC THE SECOND ENCOUNTER\Sources\GLShaders\RenderSession.cpp18084318@@3HA 10064570     RenderSession.obj
 0003:00000a68       ??_R0?AVexception@@@8      10064a68     RenderSession.obj
 0003:00000a88       ??_R0?AVruntime_error@std@@@8 10064a88     RenderSession.obj
 0003:00000ab0       ??_R0?AVlogic_error@std@@@8 10064ab0     RenderSession.obj
 0003:00000ad8       ??_R0?AVout_of_range@std@@@8 10064ad8     RenderSession.obj
 0003:00000b00       ??_C@_0BM@GODI@invalid?5vector?$DMT?$DO?5subscript?$AA@ 10064b00     RenderSession.obj
 0003:00000b24       ??_C@_0DK@GMMD@iRow?$DO?$DN1?5?$CG?$CG?5iRow?$DM?$DNiRows?5?$CG?$CG?5iColum@ 10064b24     RenderSession.obj
 0003:00000b6c       ??_C@_0GG@ILLB@C?3?2GAMES?2STEAM?2STEAMAPPS?2COMMON?2@ 10064b6c     RenderSession.obj
 0003:00000be8       ??_C@_0P@DOLK@iDimensions?$DN?$DN3?$AA@ 10064be8     RenderSession.obj
 0003:00000bfc       ??_C@_0GG@LDMA@C?3?2GAMES?2STEAM?2STEAMAPPS?2COMMON?2@ 10064bfc     RenderSession.obj
 0003:00000c78       ??_C@_0BH@EHFB@i?$DO?$DN1?5?$CG?$CG?5i?$DM?$DNiDimensions?$AA@ 10064c78     RenderSession.obj
 0003:00000c94       ??_C@_0BD@BDEJ@i?$DO?$DN0?5?$CG?$CG?5i?$DMsa_Count?$AA@ 10064c94     RenderSession.obj
 0003:00000cac       ??_C@_0L@OPGH@this?$CB?$DNNULL?$AA@ 10064cac     RenderSession.obj
 0003:00000cbc       ??_C@_0HC@HDOM@C?3?2GAMES?2STEAM?2STEAMAPPS?2COMMON?2@ 10064cbc     RenderSession.obj
 0003:00000f24       ??_C@_09HLJN@GLShaders?$AA@ 10064f24     ShaderProfile.obj
 0003:00000f30       ??_C@_0BN@IKFH@EFNMShaders?2GLDefaultProfile?$AA@ 10064f30     ShaderProfile.obj
 0003:00002770       ?GLCubeMapBaker_handlers@@3PAVCEventHandlerEntry@@A 10066770     GLCubeMapBaker.obj
 0003:000027c0       _GLCubeMapBaker_DLLClass   100667c0     GLCubeMapBaker.obj
 0003:00003048       ??_R0PAD@8                 10067048     GLCubeMapBaker.obj
 0003:00003058       ??_C@_0P@JECN@iDimensions?$DN?$DN2?$AA@ 10067058     GLCubeMapBaker.obj
 0003:00003070       ?SkaCustomShadingType_values@@3PAVCEntityPropertyEnumValue@@A 10067070     GLModelHolder.obj
 0003:00003088       ?SkaCustomShadingType_enum@@3VCEntityPropertyEnumType@@A 10067088     GLModelHolder.obj
 0003:00003090       ?SkaShadowType_values@@3PAVCEntityPropertyEnumValue@@A 10067090     GLModelHolder.obj
 0003:000030a8       ?SkaShadowType_enum@@3VCEntityPropertyEnumType@@A 100670a8     GLModelHolder.obj
 0003:000030b0       ?GLModelHolder_handlers@@3PAVCEventHandlerEntry@@A 100670b0     GLModelHolder.obj
 0003:000030f0       _GLModelHolder_DLLClass    100670f0     GLModelHolder.obj
 0003:00003ea8       ?ActionType_values@@3PAVCEntityPropertyEnumValue@@A 10067ea8     GLModelHolderAnimationChanger.obj
 0003:00003ec8       ?ActionType_enum@@3VCEntityPropertyEnumType@@A 10067ec8     GLModelHolderAnimationChanger.obj
 0003:00003ed0       ?GLModelHolderAnimationChanger_handlers@@3PAVCEventHandlerEntry@@A 10067ed0     GLModelHolderAnimationChanger.obj
 0003:00003f20       _GLModelHolderAnimationChanger_DLLClass 10067f20     GLModelHolderAnimationChanger.obj
 0003:00004cc0       ?__LINE__Var@?1??stream_get@@9@9@9211ce04 10068cc0     janssond:load.obj
 0003:00004cc4       ?__LINE__Var@?1??lex_unget_unsave@@9@9@9211ce04 10068cc4     janssond:load.obj
 0003:00004cc8       ?__LINE__Var@?1??stream_unget@@9@9@9211ce04 10068cc8     janssond:load.obj
 0003:00004ccc       ?__LINE__Var@?1??lex_scan_string@@9@9@9211ce04 10068ccc     janssond:load.obj
 0003:00004cd0       ?__LINE__Var@?1??decode_unicode_escape@@9@9@9211ce04 10068cd0     janssond:load.obj
 0003:00004cd4       ?__LINE__Var@?1??lex_scan_number@@9@9@9211ce04 10068cd4     janssond:load.obj
 0003:00004ce0       ?__LINE__Var@?1??jsonp_strtod@@9@9 10068ce0     janssond:strconv.obj
 0003:00004cf0       ??_R0?AVtype_info@@@8      10068cf0     MSVCRTD:ti_inst.obj
 0003:00004e38       ?g_AlexShaders_modelMatrix_pos0@@3MA 10068e38     ModelMatrix.obj
 0003:00004e3c       ?g_AlexShaders_modelMatrix_pos1@@3MA 10068e3c     ModelMatrix.obj
 0003:00004e40       ?g_AlexShaders_modelMatrix_pos2@@3MA 10068e40     ModelMatrix.obj
 0003:00004e44       ?g_AlexShaders_modelMatrix_ang0@@3MA 10068e44     ModelMatrix.obj
 0003:00004e48       ?g_AlexShaders_modelMatrix_ang1@@3MA 10068e48     ModelMatrix.obj
 0003:00004e4c       ?g_AlexShaders_modelMatrix_ang2@@3MA 10068e4c     ModelMatrix.obj
 0003:00004e5c       ?g_previousArrayBuffer@?%C:\GAMES\STEAM\STEAMAPPS\COMMON\SERIOUS SAM CLASSIC THE SECOND ENCOUNTER\Sources\GLShaders\RenderSession.cpp18084318@@3HA 10068e5c     RenderSession.obj
 0003:00004e60       ?g_renderSessions@?%C:\GAMES\STEAM\STEAMAPPS\COMMON\SERIOUS SAM CLASSIC THE SECOND ENCOUNTER\Sources\GLShaders\RenderSession.cpp18084318@@3V?$vector@V?$vector@URenderSession@?%C:\GAMES\STEAM\STEAMAPPS\COMMON\SERIOUS SAM CLASSIC THE SECOND ENCOUNTER\Sources\GLShaders\RenderSession.cpp18084318@@V?$allocator@URenderSession@?%C:\GAMES\STEAM\STEAMAPPS\COMMON\SERIOUS SAM CLASSIC THE SECOND ENCOUNTER\Sources\GLShaders\RenderSession.cpp18084318@@@std@@@std@@V?$allocator@V?$vector@URenderSession@?%C:\GAMES\STEAM\STEAMAPPS\COMMON\SERIOUS SAM CLASSIC THE SECOND ENCOUNTER\Sources\GLShaders\RenderSession.cpp18084318@@V?$allocator@URenderSession@?%C:\GAMES\STEAM\STEAMAPPS\COMMON\SERIOUS SAM CLASSIC THE SECOND ENCOUNTER\Sources\GLShaders\RenderSession.cpp18084318@@@std@@@std@@@2@@std@@A 10068e60     RenderSession.obj
 0003:00004e70       ?g_textures@?%C:\GAMES\STEAM\STEAMAPPS\COMMON\SERIOUS SAM CLASSIC THE SECOND ENCOUNTER\Sources\GLShaders\RenderSession.cpp18084318@@3V?$map@KIU?$less@K@std@@V?$allocator@I@2@@std@@A 10068e70     RenderSession.obj
 0003:00004e80       ?g_previousElementBuffer@?%C:\GAMES\STEAM\STEAMAPPS\COMMON\SERIOUS SAM CLASSIC THE SECOND ENCOUNTER\Sources\GLShaders\RenderSession.cpp18084318@@3HA 10068e80     RenderSession.obj
 0003:00004e84       ?g_initialized@?%C:\GAMES\STEAM\STEAMAPPS\COMMON\SERIOUS SAM CLASSIC THE SECOND ENCOUNTER\Sources\GLShaders\RenderSession.cpp18084318@@3_NA 10068e84     RenderSession.obj
 0003:00004e88       ?g_customFloatPool@?%C:\GAMES\STEAM\STEAMAPPS\COMMON\SERIOUS SAM CLASSIC THE SECOND ENCOUNTER\Sources\GLShaders\RenderSession.cpp18084318@@3PAMA 10068e88     RenderSession.obj
 0003:00004e8c       ?g_customVecPool@?%C:\GAMES\STEAM\STEAMAPPS\COMMON\SERIOUS SAM CLASSIC THE SECOND ENCOUNTER\Sources\GLShaders\RenderSession.cpp18084318@@3PAMA 10068e8c     RenderSession.obj
 0003:00004e9c       ?_Nil@?$_Tree@KU?$pair@$$CBKI@std@@U_Kfn@?$map@KIU?$less@K@std@@V?$allocator@I@2@@2@U?$less@K@2@V?$allocator@I@2@@std@@1PAU_Node@12@A 10068e9c     RenderSession.obj
 0003:00004ea0       ?_Nilrefs@?$_Tree@KU?$pair@$$CBKI@std@@U_Kfn@?$map@KIU?$less@K@std@@V?$allocator@I@2@@2@U?$less@K@2@V?$allocator@I@2@@std@@1IA 10068ea0     RenderSession.obj
 0003:00004ef8       ?GLCubeMapBaker_components@@3PAVCEntityComponent@@A 10068ef8     GLCubeMapBaker.obj
 0003:00004f10       ?_fnmGLCubeMapBaker_tbn@@3VCTFileName@@A 10068f10     GLCubeMapBaker.obj
 0003:00004f18       ?GLCubeMapBaker_properties@@3PAVCEntityProperty@@A 10068f18     GLCubeMapBaker.obj
 0003:00004f78       ?GLModelHolder_components@@3PAVCEntityComponent@@A 10068f78     GLModelHolder.obj
 0003:00004f90       ?_fnmGLModelHolder_tbn@@3VCTFileName@@A 10068f90     GLModelHolder.obj
 0003:00004f98       ?GLModelHolder_properties@@3PAVCEntityProperty@@A 10068f98     GLModelHolder.obj
 0003:00005218       ?GLModelHolderAnimationChanger_properties@@3PAVCEntityProperty@@A 10069218     GLModelHolderAnimationChanger.obj
 0003:00005378       ?_fnmGLModelHolderAnimationChanger_tbn@@3VCTFileName@@A 10069378     GLModelHolderAnimationChanger.obj
 0003:00005380       ?GLModelHolderAnimationChanger_components@@3PAVCEntityComponent@@A 10069380     GLModelHolderAnimationChanger.obj
 0003:000053fc       _hashtable_seed            100693fc     janssond:hashtable_seed.obj
 0003:00005408       __adjust_fdiv              10069408     <common>
 0003:00005414       __pRawDllMain              10069414     <common>
 0003:00005420       ___onexitend               10069420     <common>
 0003:00005430       ___onexitbegin             10069430     <common>
 0004:00000000       __IMPORT_DESCRIPTOR_EngineD 1006a000     EngineD:EngineD.dll
 0004:00000014       __IMPORT_DESCRIPTOR_EngineGUID 1006a014     EngineGUID:EngineGUID.dll
 0004:00000028       __IMPORT_DESCRIPTOR_glew32 1006a028     glew32:glew32.dll
 0004:0000003c       __IMPORT_DESCRIPTOR_OPENGL32 1006a03c     opengl32:OPENGL32.dll
 0004:00000050       __IMPORT_DESCRIPTOR_USER32 1006a050     User32:USER32.dll
 0004:00000064       __IMPORT_DESCRIPTOR_EntitiesMPD 1006a064     EntitiesMPD:EntitiesMPD.dll
 0004:00000078       __IMPORT_DESCRIPTOR_MSVCRTD 1006a078     MSVCRTD:MSVCRTD.dll
 0004:0000008c       __IMPORT_DESCRIPTOR_MSVCP60D 1006a08c     msvcprtd:MSVCP60D.dll
 0004:000000a0       __IMPORT_DESCRIPTOR_KERNEL32 1006a0a0     kernel32:KERNEL32.dll
 0004:000000b4       __NULL_IMPORT_DESCRIPTOR   1006a0b4     EngineD:EngineD.dll
 0004:00000908       __imp_??BCTString@@QBEPBDXZ 1006a908     EngineD:EngineD.dll
 0004:0000090c       __imp_??1CTFileName@@QAE@XZ 1006a90c     EngineD:EngineD.dll
 0004:00000910       __imp_?ExpandFilePath@@YAJKABVCTFileName@@AAV1@@Z 1006a910     EngineD:EngineD.dll
 0004:00000914       __imp_?NoExt@CTFileName@@QBE?AV1@XZ 1006a914     EngineD:EngineD.dll
 0004:00000918       __imp_?GetName@CTextureObject@@QAEABVCTFileName@@XZ 1006a918     EngineD:EngineD.dll
 0004:0000091c       __imp_??0CTFileName@@QAE@XZ 1006a91c     EngineD:EngineD.dll
 0004:00000920       __imp_?shaGetUVMap@@YAPAUGFXTexCoord@@J@Z 1006a920     EngineD:EngineD.dll
 0004:00000924       __imp_?shaGetNormalArray@@YAPAUGFXNormal4@@XZ 1006a924     EngineD:EngineD.dll
 0004:00000928       __imp_?shaGetVertexArray@@YAPAUGFXVertex4@@XZ 1006a928     EngineD:EngineD.dll
 0004:0000092c       __imp_?shaGetIndexArray@@YAPAJXZ 1006a92c     EngineD:EngineD.dll
 0004:00000930       __imp_?shaGetIndexCount@@YAJXZ 1006a930     EngineD:EngineD.dll
 0004:00000934       __imp_?shaGetObjToAbsMatrix@@YAPAY0M@MXZ 1006a934     EngineD:EngineD.dll
 0004:00000938       __imp_?shaGetVertexCount@@YAJXZ 1006a938     EngineD:EngineD.dll
 0004:0000093c       __imp_?shaGetTexture@@YAPAVCTextureObject@@J@Z 1006a93c     EngineD:EngineD.dll
 0004:00000940       __imp_?shaGetFlags@@YAAAKXZ 1006a940     EngineD:EngineD.dll
 0004:00000944       __imp_?shaGetColor@@YAAAKJ@Z 1006a944     EngineD:EngineD.dll
 0004:00000948       __imp_?shaGetFloat@@YAMJ@Z 1006a948     EngineD:EngineD.dll
 0004:0000094c       __imp_?CurrentTick@CTimer@@QBE?BMXZ 1006a94c     EngineD:EngineD.dll
 0004:00000950       __imp_?_pTimer@@3PAVCTimer@@A 1006a950     EngineD:EngineD.dll
 0004:00000954       __imp_?shaGetAmbientColor@@YAAAKXZ 1006a954     EngineD:EngineD.dll
 0004:00000958       __imp_?shaGetLightColor@@YAAAKXZ 1006a958     EngineD:EngineD.dll
 0004:0000095c       __imp_?shaGetLightDirection@@YAAAV?$Vector@M$02@@XZ 1006a95c     EngineD:EngineD.dll
 0004:00000960       __imp_?MakeRotationMatrix@@YAXAAV?$Matrix@M$02$02@@ABV?$Vector@M$02@@@Z 1006a960     EngineD:EngineD.dll
 0004:00000964       __imp_??BCAnyProjection3D@@QAEPAVCProjection3D@@XZ 1006a964     EngineD:EngineD.dll
 0004:00000968       __imp_?IsPerspective@CAnyProjection3D@@QAEHXZ 1006a968     EngineD:EngineD.dll
 0004:0000096c       __imp_?shaGetProjection@@YAPAVCAnyProjection3D@@XZ 1006a96c     EngineD:EngineD.dll
 0004:00000970       __imp_?shaCullFace@@YAXW4GfxFace@@@Z 1006a970     EngineD:EngineD.dll
 0004:00000974       __imp_?shaDisableBlend@@YAXXZ 1006a974     EngineD:EngineD.dll
 0004:00000978       __imp_?shaBlendFunc@@YAXW4GfxBlend@@0@Z 1006a978     EngineD:EngineD.dll
 0004:0000097c       __imp_?shaEnableBlend@@YAXXZ 1006a97c     EngineD:EngineD.dll
 0004:00000980       __imp_?shaDisableAlphaTest@@YAXXZ 1006a980     EngineD:EngineD.dll
 0004:00000984       __imp_?shaEnableAlphaTest@@YAXXZ 1006a984     EngineD:EngineD.dll
 0004:00000988       __imp_?shaDisableDepthWrite@@YAXXZ 1006a988     EngineD:EngineD.dll
 0004:0000098c       __imp_?shaEnableDepthWrite@@YAXXZ 1006a98c     EngineD:EngineD.dll
 0004:00000990       __imp_?shaDisableDepthTest@@YAXXZ 1006a990     EngineD:EngineD.dll
 0004:00000994       __imp_?shaDepthFunc@@YAXW4GfxComp@@@Z 1006a994     EngineD:EngineD.dll
 0004:00000998       __imp_?shaEnableDepthTest@@YAXXZ 1006a998     EngineD:EngineD.dll
 0004:0000099c       __imp_?shaSetTextureWrapping@@YAXW4GfxWrap@@0@Z 1006a99c     EngineD:EngineD.dll
 0004:000009a0       __imp_??4CTString@@QAEAAV0@PBD@Z 1006a9a0     EngineD:EngineD.dll
 0004:000009a4       __imp_??0CTString@@QAE@XZ  1006a9a4     EngineD:EngineD.dll
 0004:000009a8       __imp_??1CTString@@QAE@XZ  1006a9a8     EngineD:EngineD.dll
 0004:000009ac       __imp_??0CTFileName@@QAE@PBDH@Z 1006a9ac     EngineD:EngineD.dll
 0004:000009b0       __imp_??0CEntityProperty@@QAE@W4PropertyType@0@PAVCEntityPropertyEnumType@@KJPADDKK@Z 1006a9b0     EngineD:EngineD.dll
 0004:000009b4       __imp_??0CEntityComponent@@QAE@XZ 1006a9b4     EngineD:EngineD.dll
 0004:000009b8       __imp_??1CEntityComponent@@QAE@XZ 1006a9b8     EngineD:EngineD.dll
 0004:000009bc       __imp__CRationalEntity_DLLClass 1006a9bc     EngineD:EngineD.dll
 0004:000009c0       __imp_?SetDefaultProperties@CEntity@@UAEXXZ 1006a9c0     EngineD:EngineD.dll
 0004:000009c4       __imp_?PostMoving@CRationalEntity@@UAEXXZ 1006a9c4     EngineD:EngineD.dll
 0004:000009c8       __imp_?DoMoving@CRationalEntity@@UAEXXZ 1006a9c8     EngineD:EngineD.dll
 0004:000009cc       __imp_?PreMoving@CRationalEntity@@UAEXXZ 1006a9cc     EngineD:EngineD.dll
 0004:000009d0       __imp_?ClearMovingTemp@CRationalEntity@@UAEXXZ 1006a9d0     EngineD:EngineD.dll
 0004:000009d4       __imp_?FillEntityStatistics@CEntity@@UAEHPAUEntityStats@@@Z 1006a9d4     EngineD:EngineD.dll
 0004:000009d8       __imp_?GetEntityInfo@CEntity@@UAEPAXXZ 1006a9d8     EngineD:EngineD.dll
 0004:000009dc       __imp_?ReceiveItem@CEntity@@UAEHABVCEntityEvent@@@Z 1006a9dc     EngineD:EngineD.dll
 0004:000009e0       __imp_?ReceiveDamage@CLiveEntity@@UAEXPAVCEntity@@W4DamageType@@MABV?$Vector@M$02@@2@Z 1006a9e0     EngineD:EngineD.dll
 0004:000009e4       __imp_?CopyForPrediction@CEntity@@UAEXAAV1@@Z 1006a9e4     EngineD:EngineD.dll
 0004:000009e8       __imp_?AddDependentsToPrediction@CEntity@@UAEXXZ 1006a9e8     EngineD:EngineD.dll
 0004:000009ec       __imp_?GetPredictionRange@CEntity@@UAEMXZ 1006a9ec     EngineD:EngineD.dll
 0004:000009f0       __imp_?GetPredictionTime@CEntity@@UAEMXZ 1006a9f0     EngineD:EngineD.dll
 0004:000009f4       __imp_?SetPredictionTime@CEntity@@UAEXM@Z 1006a9f4     EngineD:EngineD.dll
 0004:000009f8       __imp_?SetPredictionPair@CEntity@@UAEXPAV1@@Z 1006a9f8     EngineD:EngineD.dll
 0004:000009fc       __imp_?GetPredictionPair@CEntity@@UAEPAV1@XZ 1006a9fc     EngineD:EngineD.dll
 0004:00000a00       __imp_?GetMaxTessellationLevel@CEntity@@UAEMXZ 1006aa00     EngineD:EngineD.dll
 0004:00000a04       __imp_?GetVisTweaks@CEntity@@UAEKXZ 1006aa04     EngineD:EngineD.dll
 0004:00000a08       __imp_?GetDepthSortOffset@CEntity@@UAEMXZ 1006aa08     EngineD:EngineD.dll
 0004:00000a0c       __imp_?MirrorAndStretch@CEntity@@UAEXMH@Z 1006aa0c     EngineD:EngineD.dll
 0004:00000a10       __imp_?RenderGameView@CEntity@@UAEXPAVCDrawPort@@PAX@Z 1006aa10     EngineD:EngineD.dll
 0004:00000a14       __imp_?GetCollisionBoxParameters@CEntity@@UAEXJAAV?$AABBox@M$02@@AAJ@Z 1006aa14     EngineD:EngineD.dll
 0004:00000a18       __imp_?GetCollisionBoxIndex@CEntity@@UAEJXZ 1006aa18     EngineD:EngineD.dll
 0004:00000a1c       __imp_?RenderParticles@CEntity@@UAEXXZ 1006aa1c     EngineD:EngineD.dll
 0004:00000a20       __imp_?GetFieldSettings@CEntity@@UAEPAVCFieldSettings@@XZ 1006aa20     EngineD:EngineD.dll
 0004:00000a24       __imp_?GetModelInstanceForRendering@CEntity@@UAEPAVCModelInstance@@XZ 1006aa24     EngineD:EngineD.dll
 0004:00000a28       __imp_?GetModelForRendering@CEntity@@UAEPAVCModelObject@@XZ 1006aa28     EngineD:EngineD.dll
 0004:00000a2c       __imp_?AdjustMipFactor@CEntity@@UAEXAAM@Z 1006aa2c     EngineD:EngineD.dll
 0004:00000a30       __imp_?AdjustShadingParameters@CEntity@@UAEHAAV?$Vector@M$02@@AAK1@Z 1006aa30     EngineD:EngineD.dll
 0004:00000a34       __imp_?GetAnimData@CEntity@@UAEPAVCAnimData@@J@Z 1006aa34     EngineD:EngineD.dll
 0004:00000a38       __imp_?GetClassificationBoxStretch@CEntity@@UAE?AV?$Vector@M$02@@XZ 1006aa38     EngineD:EngineD.dll
 0004:00000a3c       __imp_?GetGradient@CEntity@@UAEHJAAVCGradientParameters@@@Z 1006aa3c     EngineD:EngineD.dll
 0004:00000a40       __imp_?GetGradientName@CEntity@@UAEABVCTString@@J@Z 1006aa40     EngineD:EngineD.dll
 0004:00000a44       __imp_?GetMirror@CEntity@@UAEHJAAVCMirrorParameters@@@Z 1006aa44     EngineD:EngineD.dll
 0004:00000a48       __imp_?GetMirrorName@CEntity@@UAEABVCTString@@J@Z 1006aa48     EngineD:EngineD.dll
 0004:00000a4c       __imp_?GetHaze@CEntity@@UAEHJAAVCHazeParameters@@AAV?$Vector@M$02@@@Z 1006aa4c     EngineD:EngineD.dll
 0004:00000a50       __imp_?GetHazeName@CEntity@@UAEABVCTString@@J@Z 1006aa50     EngineD:EngineD.dll
 0004:00000a54       __imp_?GetFog@CEntity@@UAEHJAAVCFogParameters@@@Z 1006aa54     EngineD:EngineD.dll
 0004:00000a58       __imp_?GetFogName@CEntity@@UAEABVCTString@@J@Z 1006aa58     EngineD:EngineD.dll
 0004:00000a5c       __imp_?GetForceController@CEntity@@UAEPAV1@J@Z 1006aa5c     EngineD:EngineD.dll
 0004:00000a60       __imp_?GetForce@CEntity@@UAEXJABV?$Vector@M$02@@AAVCForceStrength@@1@Z 1006aa60     EngineD:EngineD.dll
 0004:00000a64       __imp_?GetForceName@CEntity@@UAEABVCTString@@J@Z 1006aa64     EngineD:EngineD.dll
 0004:00000a68       __imp_?IsTargetValid@CEntity@@UAEHJPAV1@@Z 1006aa68     EngineD:EngineD.dll
 0004:00000a6c       __imp_?GetLightSource@CEntity@@UAEPAVCLightSource@@XZ 1006aa6c     EngineD:EngineD.dll
 0004:00000a70       __imp_?DropsMarker@CEntity@@UBEHAAVCTFileName@@AAVCTString@@@Z 1006aa70     EngineD:EngineD.dll
 0004:00000a74       __imp_?MovesByTargetedRoute@CEntity@@UBEHAAVCTString@@@Z 1006aa74     EngineD:EngineD.dll
 0004:00000a78       __imp_?IsImportant@CEntity@@UBEHXZ 1006aa78     EngineD:EngineD.dll
 0004:00000a7c       __imp_?IsMarker@CEntity@@UBEHXZ 1006aa7c     EngineD:EngineD.dll
 0004:00000a80       __imp_?IsTargetable@CEntity@@UBEHXZ 1006aa80     EngineD:EngineD.dll
 0004:00000a84       __imp_?GetTarget@CEntity@@UBEPAV1@XZ 1006aa84     EngineD:EngineD.dll
 0004:00000a88       __imp_?GetDescription@CEntity@@UBEABVCTString@@XZ 1006aa88     EngineD:EngineD.dll
 0004:00000a8c       __imp_?GetLerpedPlacement@CEntity@@UBE?AVCPlacement3D@@XZ 1006aa8c     EngineD:EngineD.dll
 0004:00000a90       __imp_?HandleEvent@CRationalEntity@@UAEHABVCEntityEvent@@@Z 1006aa90     EngineD:EngineD.dll
 0004:00000a94       __imp_?HandlerForStateAndEvent@CEntity@@UAEP81@AEHABVCEntityEvent@@@ZJJ@Z 1006aa94     EngineD:EngineD.dll
 0004:00000a98       __imp_?GetUsedMemory@CRationalEntity@@UAEJXZ 1006aa98     EngineD:EngineD.dll
 0004:00000a9c       __imp_?GetOpacity@CEntity@@UAEMXZ 1006aa9c     EngineD:EngineD.dll
 0004:00000aa0       __imp_?PrintStackDebug@CRationalEntity@@UAEPBDXZ 1006aaa0     EngineD:EngineD.dll
 0004:00000aa4       __imp_?OnEnd@CRationalEntity@@UAEXXZ 1006aaa4     EngineD:EngineD.dll
 0004:00000aa8       __imp_?OnInitialize@CRationalEntity@@UAEXABVCEntityEvent@@@Z 1006aaa8     EngineD:EngineD.dll
 0004:00000aac       __imp_?AdjustBones@CEntity@@UAEXXZ 1006aaac     EngineD:EngineD.dll
 0004:00000ab0       __imp_?DumpSync_t@CRationalEntity@@UAEXAAVCTStream@@J@Z 1006aab0     EngineD:EngineD.dll
 0004:00000ab4       __imp_?ChecksumForSync@CRationalEntity@@UAEXAAKJ@Z 1006aab4     EngineD:EngineD.dll
 0004:00000ab8       __imp_?Precache@CEntity@@UAEXXZ 1006aab8     EngineD:EngineD.dll
 0004:00000abc       __imp_?Write_t@CRationalEntity@@UAEXPAVCTStream@@@Z 1006aabc     EngineD:EngineD.dll
 0004:00000ac0       __imp_??4CEntity@@UAEAAV0@AAV0@@Z 1006aac0     EngineD:EngineD.dll
 0004:00000ac4       __imp_?Copy@CRationalEntity@@UAEXAAVCEntity@@K@Z 1006aac4     EngineD:EngineD.dll
 0004:00000ac8       __imp_?SetPlacement_internal@CEntity@@UAEXABVCPlacement3D@@ABV?$Matrix@M$02$02@@H@Z 1006aac8     EngineD:EngineD.dll
 0004:00000acc       __imp_??1CRationalEntity@@UAE@XZ 1006aacc     EngineD:EngineD.dll
 0004:00000ad0       __imp_??0CRationalEntity@@QAE@XZ 1006aad0     EngineD:EngineD.dll
 0004:00000ad4       __imp_?Read_t@CRationalEntity@@UAEXPAVCTStream@@@Z 1006aad4     EngineD:EngineD.dll
 0004:00000ad8       __imp_??1CImageInfo@@QAE@XZ 1006aad8     EngineD:EngineD.dll
 0004:00000adc       __imp_?SaveTGA_t@CImageInfo@@QBEXABVCTFileName@@@Z 1006aadc     EngineD:EngineD.dll
 0004:00000ae0       __imp_?GrabScreen@CDrawPort@@QBEXAAVCImageInfo@@J@Z 1006aae0     EngineD:EngineD.dll
 0004:00000ae4       __imp_??0CImageInfo@@QAE@XZ 1006aae4     EngineD:EngineD.dll
 0004:00000ae8       __imp_?Unlock@CDrawPort@@QAEXXZ 1006aae8     EngineD:EngineD.dll
 0004:00000aec       __imp_?RenderView@@YAXAAVCWorld@@AAVCEntity@@AAVCAnyProjection3D@@AAVCDrawPort@@@Z 1006aaec     EngineD:EngineD.dll
 0004:00000af0       __imp_?GetWorld@CEntity@@QAEPAVCWorld@@XZ 1006aaf0     EngineD:EngineD.dll
 0004:00000af4       __imp_?FarClipDistanceL@CProjection3D@@QAEAAMXZ 1006aaf4     EngineD:EngineD.dll
 0004:00000af8       __imp_??CCAnyProjection3D@@QAEPAVCProjection3D@@XZ 1006aaf8     EngineD:EngineD.dll
 0004:00000afc       __imp_??4CAnyProjection3D@@QAEXABVCPerspectiveProjection3D@@@Z 1006aafc     EngineD:EngineD.dll
 0004:00000b00       __imp_?ObjectPlacementL@CProjection3D@@QAEAAVCPlacement3D@@XZ 1006ab00     EngineD:EngineD.dll
 0004:00000b04       __imp_??0CPlacement3D@@QAE@ABV?$Vector@M$02@@0@Z 1006ab04     EngineD:EngineD.dll
 0004:00000b08       __imp_?ViewerPlacementL@CProjection3D@@QAEAAVCPlacement3D@@XZ 1006ab08     EngineD:EngineD.dll
 0004:00000b0c       __imp_?ObjectStretchL@CProjection3D@@QAEAAV?$Vector@M$02@@XZ 1006ab0c     EngineD:EngineD.dll
 0004:00000b10       __imp_?AspectRatioL@CProjection3D@@QAEAAMXZ 1006ab10     EngineD:EngineD.dll
 0004:00000b14       __imp_?FrontClipDistanceL@CProjection3D@@QAEAAMXZ 1006ab14     EngineD:EngineD.dll
 0004:00000b18       __imp_?ScreenBBoxL@CProjection3D@@QAEAAV?$AABBox@M$01@@XZ 1006ab18     EngineD:EngineD.dll
 0004:00000b1c       __imp_?FOVL@CPerspectiveProjection3D@@QAEAAMXZ 1006ab1c     EngineD:EngineD.dll
 0004:00000b20       __imp_??0CPerspectiveProjection3D@@QAE@XZ 1006ab20     EngineD:EngineD.dll
 0004:00000b24       __imp_??0CAnyProjection3D@@QAE@XZ 1006ab24     EngineD:EngineD.dll
 0004:00000b28       __imp_?FillZBuffer@CDrawPort@@QBEXM@Z 1006ab28     EngineD:EngineD.dll
 0004:00000b2c       __imp_?Lock@CDrawPort@@QAEHXZ 1006ab2c     EngineD:EngineD.dll
 0004:00000b30       __imp_?FreeMemory@@YAXPAX@Z 1006ab30     EngineD:EngineD.dll
 0004:00000b34       __imp_?_debug_AllocMemory@@YAPAXJHPBDH@Z 1006ab34     EngineD:EngineD.dll
 0004:00000b38       __imp_?DestroyWorkCanvas@CGfxLibrary@@QAEXPAVCDrawPort@@@Z 1006ab38     EngineD:EngineD.dll
 0004:00000b3c       __imp_?CreateTexture_t@@YAXABVCTFileName@@0JJH@Z 1006ab3c     EngineD:EngineD.dll
 0004:00000b40       __imp_??0CTFileName@@QAE@ABVCTString@@@Z 1006ab40     EngineD:EngineD.dll
 0004:00000b44       __imp_??HCTString@@QBE?AV0@ABV0@@Z 1006ab44     EngineD:EngineD.dll
 0004:00000b48       __imp_?CreateWorkCanvas@CGfxLibrary@@QAEXJJPAPAVCDrawPort@@@Z 1006ab48     EngineD:EngineD.dll
 0004:00000b4c       __imp_?_pGfx@@3PAVCGfxLibrary@@A 1006ab4c     EngineD:EngineD.dll
 0004:00000b50       __imp_??4CTFileName@@QAEAAV0@ABV0@@Z 1006ab50     EngineD:EngineD.dll
 0004:00000b54       __imp_??8CTString@@QBEHPBD@Z 1006ab54     EngineD:EngineD.dll
 0004:00000b58       __imp_??0CTString@@QAE@PBD@Z 1006ab58     EngineD:EngineD.dll
 0004:00000b5c       __imp_??1EBegin@@UAE@XZ    1006ab5c     EngineD:EngineD.dll
 0004:00000b60       __imp_?Jump@CRationalEntity@@QAEXJJHABVCEntityEvent@@@Z 1006ab60     EngineD:EngineD.dll
 0004:00000b64       __imp_??0EBegin@@QAE@XZ    1006ab64     EngineD:EngineD.dll
 0004:00000b68       __imp_?SetTimerAfter@CRationalEntity@@QAEXM@Z 1006ab68     EngineD:EngineD.dll
 0004:00000b6c       __imp_?_bWorldEditorApp@@3HA 1006ab6c     EngineD:EngineD.dll
 0004:00000b70       __imp_?SetSkaModel@CEntity@@QAEHABVCTString@@@Z 1006ab70     EngineD:EngineD.dll
 0004:00000b74       __imp_?SetCollisionFlags@CEntity@@QAEXK@Z 1006ab74     EngineD:EngineD.dll
 0004:00000b78       __imp_?SetPhysicsFlags@CEntity@@QAEXK@Z 1006ab78     EngineD:EngineD.dll
 0004:00000b7c       __imp_?InitAsSkaEditorModel@CEntity@@QAEXXZ 1006ab7c     EngineD:EngineD.dll
 0004:00000b80       __imp_??1EInternal@@UAE@XZ 1006ab80     EngineD:EngineD.dll
 0004:00000b84       __imp_??0EInternal@@QAE@XZ 1006ab84     EngineD:EngineD.dll
 0004:00000b88       __imp_?SetTimerAt@CRationalEntity@@QAEXM@Z 1006ab88     EngineD:EngineD.dll
 0004:00000b8c       __imp_??1EVoid@@UAE@XZ     1006ab8c     EngineD:EngineD.dll
 0004:00000b90       __imp_?Return@CRationalEntity@@QAEXJABVCEntityEvent@@@Z 1006ab90     EngineD:EngineD.dll
 0004:00000b94       __imp_??0EVoid@@QAE@XZ     1006ab94     EngineD:EngineD.dll
 0004:00000b98       __imp_??1CEntityEvent@@UAE@XZ 1006ab98     EngineD:EngineD.dll
 0004:00000b9c       __imp_??0CTString@@QAE@ABV0@@Z 1006ab9c     EngineD:EngineD.dll
 0004:00000ba0       __imp_??0CEntityEvent@@QAE@ABV0@@Z 1006aba0     EngineD:EngineD.dll
 0004:00000ba4       __imp_??4CTString@@QAEAAV0@ABV0@@Z 1006aba4     EngineD:EngineD.dll
 0004:00000ba8       __imp_??4CEntityEvent@@QAEAAV0@ABV0@@Z 1006aba8     EngineD:EngineD.dll
 0004:00000bac       __imp_?AddReference@CEntity@@QAEXXZ 1006abac     EngineD:EngineD.dll
 0004:00000bb0       __imp_?RemReference@CEntity@@QAEXXZ 1006abb0     EngineD:EngineD.dll
 0004:00000bb4       __imp_?Read_t@CTStream@@QAEXPAXJ@Z 1006abb4     EngineD:EngineD.dll
 0004:00000bb8       __imp_?ExpectID_t@CTStream@@QAEXABVCChunkID@@@Z 1006abb8     EngineD:EngineD.dll
 0004:00000bbc       __imp_??0CChunkID@@QAE@PBD@Z 1006abbc     EngineD:EngineD.dll
 0004:00000bc0       __imp_?Length@CTString@@QBEJXZ 1006abc0     EngineD:EngineD.dll
 0004:00000bc4       __imp_?Write_t@CTStream@@QAEXPBXJ@Z 1006abc4     EngineD:EngineD.dll
 0004:00000bc8       __imp_?WriteID_t@CTStream@@QAEXABVCChunkID@@@Z 1006abc8     EngineD:EngineD.dll
 0004:00000bcc       __imp_?FileName@CTFileName@@QBE?AV1@XZ 1006abcc     EngineD:EngineD.dll
 0004:00000bd0       __imp_?AnglesToDirectionVector@@YAXABV?$Vector@M$02@@AAV1@@Z 1006abd0     EngineD:EngineD.dll
 0004:00000bd4       __imp_?ModelChangeNotify@CEntity@@QAEXXZ 1006abd4     EngineD:EngineD.dll
 0004:00000bd8       __imp_?StretchModel@CModelInstance@@QAEXAAV?$Vector@M$02@@@Z 1006abd8     EngineD:EngineD.dll
 0004:00000bdc       __imp_?GetModelInstance@CEntity@@QAEPAVCModelInstance@@XZ 1006abdc     EngineD:EngineD.dll
 0004:00000be0       __imp_?PrintF@CTString@@QAAJPBDZZ 1006abe0     EngineD:EngineD.dll
 0004:00000be4       __imp_?SetFlags@CEntity@@QAEXK@Z 1006abe4     EngineD:EngineD.dll
 0004:00000be8       __imp_?GetFlags@CEntity@@QBEKXZ 1006abe8     EngineD:EngineD.dll
 0004:00000bec       __imp_?WarningMessage@@YAXPBDZZ 1006abec     EngineD:EngineD.dll
 0004:00000bf0       __imp_?Translate@@YAPADPADJ@Z 1006abf0     EngineD:EngineD.dll
 0004:00000bf4       __imp_?SetSkaModel_t@CEntity@@QAEXABVCTString@@@Z 1006abf4     EngineD:EngineD.dll
 0004:00000bf8       __imp_?InitAsSkaModel@CEntity@@QAEXXZ 1006abf8     EngineD:EngineD.dll
 0004:00000bfc       __imp_?Destroy@CEntity@@QAEXXZ 1006abfc     EngineD:EngineD.dll
 0004:00000c00       __imp_?SendEvent@CEntity@@QAEXABVCEntityEvent@@@Z 1006ac00     EngineD:EngineD.dll
 0004:00000c04       __imp_?StopAllAnimations@CModelInstance@@QAEXM@Z 1006ac04     EngineD:EngineD.dll
 0004:00000c08       __imp_?RemAnimsWithID@CModelInstance@@QAEXJ@Z 1006ac08     EngineD:EngineD.dll
 0004:00000c0c       __imp_?RemAnimation@CModelInstance@@QAEXJ@Z 1006ac0c     EngineD:EngineD.dll
 0004:00000c10       __imp_?AddAnimation@CModelInstance@@QAEXJKMJM@Z 1006ac10     EngineD:EngineD.dll
 0004:00000c14       __imp_?ska_GetIDFromStringTable@@YAJVCTString@@@Z 1006ac14     EngineD:EngineD.dll
 0004:00000c18       __imp_?SwitchToEditorModel@CEntity@@QAEXXZ 1006ac18     EngineD:EngineD.dll
 0004:00000c1c       __imp_?SwitchToModel@CEntity@@QAEXXZ 1006ac1c     EngineD:EngineD.dll
 0004:00000c20       __imp_?IterationHead@CListHead@@QBEAAVCListNode@@XZ 1006ac20     EngineD:EngineD.dll
 0004:00000c24       __imp_?IterationSucc@CListNode@@QBEAAV1@XZ 1006ac24     EngineD:EngineD.dll
 0004:00000c28       __imp_?IsTailMarker@CListNode@@QBEHXZ 1006ac28     EngineD:EngineD.dll
 0004:00000c2c       __imp_??0CEntityComponent@@QAE@W4EntityComponentType@@KPAD@Z 1006ac2c     EngineD:EngineD.dll
 0004:00000c30       __imp_?AdjustShaderParams@CEntity@@UAEXJPAVCShader@@AAUShaderParams@@@Z 1006ac30     EngineD:EngineD.dll
 0004:00000c34       __imp_?ClearToDefault@@YAXAAJ@Z 1006ac34     EngineD:EngineD.dll
 0004:00000c38       __imp_?ClearToDefault@@YAXAAM@Z 1006ac38     EngineD:EngineD.dll
 0004:00000c3c       __imp_?ClearToDefault@@YAXAAK@Z 1006ac3c     EngineD:EngineD.dll
 0004:00000c40       __imp_?ClearToDefault@@YAXAAVCTString@@@Z 1006ac40     EngineD:EngineD.dll
 0004:00000c44       __imp_??0CEntityEvent@@QAE@J@Z 1006ac44     EngineD:EngineD.dll
 0004:00000c48       __imp_?SetModelMainTexture@CEntity@@QAEXJ@Z 1006ac48     EngineD:EngineD.dll
 0004:00000c4c       __imp_?SetModel@CEntity@@QAEXJ@Z 1006ac4c     EngineD:EngineD.dll
 0004:00000c50       __imp_?InitAsEditorModel@CEntity@@QAEXXZ 1006ac50     EngineD:EngineD.dll
 0004:00000c54       __imp_?CPrintF@@YAXPBDZZ   1006ac54     EngineD:EngineD.dll
 0004:00000c58       __imp_?IsDerivedFromClass@@YAHPAVCEntity@@PBD@Z 1006ac58     EngineD:EngineD.dll
 0004:00000c5c       \177EngineD_NULL_THUNK_DATA 1006ac5c     EngineD:EngineD.dll
 0004:00000d30       __imp_?_EngineGUI@@3VCEngineGUI@@A 1006ad30     EngineGUID:EngineGUID.dll
 0004:00000d34       __imp_?FileRequester@CEngineGUI@@QAE?AVCTFileName@@PAD00VCTString@@1PAV?$CDynamicArray@VCTFileName@@@@H@Z 1006ad34     EngineGUID:EngineGUID.dll
 0004:00000d38       \177EngineGUID_NULL_THUNK_DATA 1006ad38     EngineGUID:EngineGUID.dll
 0004:00000d64       __imp_??0EChangeAnim@@QAE@XZ 1006ad64     EntitiesMPD:EntitiesMPD.dll
 0004:00000d68       __imp_?MakeCopy@ESpawnSpray@@UAEPAVCEntityEvent@@XZ 1006ad68     EntitiesMPD:EntitiesMPD.dll
 0004:00000d6c       __imp_??0ESpawnSpray@@QAE@XZ 1006ad6c     EntitiesMPD:EntitiesMPD.dll
 0004:00000d70       __imp_?MakeCopy@ESpawnEffect@@UAEPAVCEntityEvent@@XZ 1006ad70     EntitiesMPD:EntitiesMPD.dll
 0004:00000d74       __imp_??0ESpawnEffect@@QAE@XZ 1006ad74     EntitiesMPD:EntitiesMPD.dll
 0004:00000d78       __imp_??0ERangeModelDestruction@@QAE@XZ 1006ad78     EntitiesMPD:EntitiesMPD.dll
 0004:00000d7c       __imp_?MakeCopy@ERangeModelDestruction@@UAEPAVCEntityEvent@@XZ 1006ad7c     EntitiesMPD:EntitiesMPD.dll
 0004:00000d80       __imp_??0ESpawnDebris@@QAE@XZ 1006ad80     EntitiesMPD:EntitiesMPD.dll
 0004:00000d84       __imp_?MakeCopy@ESpawnDebris@@UAEPAVCEntityEvent@@XZ 1006ad84     EntitiesMPD:EntitiesMPD.dll
 0004:00000d88       __imp_?MakeCopy@EChangeAnim@@UAEPAVCEntityEvent@@XZ 1006ad88     EntitiesMPD:EntitiesMPD.dll
 0004:00000d8c       \177EntitiesMPD_NULL_THUNK_DATA 1006ad8c     EntitiesMPD:EntitiesMPD.dll
 0004:00000dc0       __imp__InterlockedIncrement@4 1006adc0     kernel32:KERNEL32.dll
 0004:00000dc4       __imp__GetCurrentProcessId@0 1006adc4     kernel32:KERNEL32.dll
 0004:00000dc8       __imp__DisableThreadLibraryCalls@4 1006adc8     kernel32:KERNEL32.dll
 0004:00000dcc       __imp__SwitchToThread@0    1006adcc     kernel32:KERNEL32.dll
 0004:00000dd0       \177KERNEL32_NULL_THUNK_DATA 1006add0     kernel32:KERNEL32.dll
 0004:00000dfc       __imp_??5std@@YAAAV?$basic_istream@DU?$char_traits@D@std@@@0@AAV10@AAV?$basic_string@DU?$char_traits@D@std@@V?$allocator@D@2@@0@@Z 1006adfc     msvcprtd:MSVCP60D.dll
 0004:00000e00       __imp_??6?$basic_ostream@DU?$char_traits@D@std@@@std@@QAEAAV01@H@Z 1006ae00     msvcprtd:MSVCP60D.dll
 0004:00000e04       __imp_??0?$basic_ofstream@DU?$char_traits@D@std@@@std@@QAE@XZ 1006ae04     msvcprtd:MSVCP60D.dll
 0004:00000e08       __imp_?open@?$basic_ofstream@DU?$char_traits@D@std@@@std@@QAEXPBDH@Z 1006ae08     msvcprtd:MSVCP60D.dll
 0004:00000e0c       __imp_??_D?$basic_ofstream@DU?$char_traits@D@std@@@std@@QAEXXZ 1006ae0c     msvcprtd:MSVCP60D.dll
 0004:00000e10       __imp_??0?$basic_string@DU?$char_traits@D@std@@V?$allocator@D@2@@std@@QAE@ABV?$allocator@D@1@@Z 1006ae10     msvcprtd:MSVCP60D.dll
 0004:00000e14       __imp_?is_open@?$basic_ofstream@DU?$char_traits@D@std@@@std@@QBE_NXZ 1006ae14     msvcprtd:MSVCP60D.dll
 0004:00000e18       __imp_??6std@@YAAAV?$basic_ostream@DU?$char_traits@D@std@@@0@AAV10@PBD@Z 1006ae18     msvcprtd:MSVCP60D.dll
 0004:00000e1c       __imp_??6std@@YAAAV?$basic_ostream@DU?$char_traits@D@std@@@0@AAV10@ABV?$basic_string@DU?$char_traits@D@std@@V?$allocator@D@2@@0@@Z 1006ae1c     msvcprtd:MSVCP60D.dll
 0004:00000e20       __imp_?seekg@?$basic_istream@DU?$char_traits@D@std@@@std@@QAEAAV12@JW4seekdir@ios_base@2@@Z 1006ae20     msvcprtd:MSVCP60D.dll
 0004:00000e24       __imp_?tellg@?$basic_istream@DU?$char_traits@D@std@@@std@@QAE?AV?$fpos@H@2@XZ 1006ae24     msvcprtd:MSVCP60D.dll
 0004:00000e28       __imp_?read@?$basic_istream@DU?$char_traits@D@std@@@std@@QAEAAV12@PADH@Z 1006ae28     msvcprtd:MSVCP60D.dll
 0004:00000e2c       __imp_??Hstd@@YA?AV?$basic_string@DU?$char_traits@D@std@@V?$allocator@D@2@@0@ABV10@0@Z 1006ae2c     msvcprtd:MSVCP60D.dll
 0004:00000e30       __imp_??Y?$basic_string@DU?$char_traits@D@std@@V?$allocator@D@2@@std@@QAEAAV01@D@Z 1006ae30     msvcprtd:MSVCP60D.dll
 0004:00000e34       __imp_??Y?$basic_string@DU?$char_traits@D@std@@V?$allocator@D@2@@std@@QAEAAV01@PBD@Z 1006ae34     msvcprtd:MSVCP60D.dll
 0004:00000e38       __imp_??8std@@YA_NABV?$basic_string@DU?$char_traits@D@std@@V?$allocator@D@2@@0@PBD@Z 1006ae38     msvcprtd:MSVCP60D.dll
 0004:00000e3c       __imp_??0?$basic_ifstream@DU?$char_traits@D@std@@@std@@QAE@XZ 1006ae3c     msvcprtd:MSVCP60D.dll
 0004:00000e40       __imp_?open@?$basic_ifstream@DU?$char_traits@D@std@@@std@@QAEXPBDH@Z 1006ae40     msvcprtd:MSVCP60D.dll
 0004:00000e44       __imp_?is_open@?$basic_ifstream@DU?$char_traits@D@std@@@std@@QBE_NXZ 1006ae44     msvcprtd:MSVCP60D.dll
 0004:00000e48       __imp_?c_str@?$basic_string@DU?$char_traits@D@std@@V?$allocator@D@2@@std@@QBEPBDXZ 1006ae48     msvcprtd:MSVCP60D.dll
 0004:00000e4c       __imp_?close@?$basic_ifstream@DU?$char_traits@D@std@@@std@@QAEXXZ 1006ae4c     msvcprtd:MSVCP60D.dll
 0004:00000e50       __imp_??4?$basic_string@DU?$char_traits@D@std@@V?$allocator@D@2@@std@@QAEAAV01@PBD@Z 1006ae50     msvcprtd:MSVCP60D.dll
 0004:00000e54       __imp_??_D?$basic_ifstream@DU?$char_traits@D@std@@@std@@QAEXXZ 1006ae54     msvcprtd:MSVCP60D.dll
 0004:00000e58       __imp_?empty@?$basic_string@DU?$char_traits@D@std@@V?$allocator@D@2@@std@@QBE_NXZ 1006ae58     msvcprtd:MSVCP60D.dll
 0004:00000e5c       __imp_??0?$basic_string@DU?$char_traits@D@std@@V?$allocator@D@2@@std@@QAE@ABV01@@Z 1006ae5c     msvcprtd:MSVCP60D.dll
 0004:00000e60       __imp_??4?$basic_string@DU?$char_traits@D@std@@V?$allocator@D@2@@std@@QAEAAV01@ABV01@@Z 1006ae60     msvcprtd:MSVCP60D.dll
 0004:00000e64       __imp_??0out_of_range@std@@QAE@ABV?$basic_string@DU?$char_traits@D@std@@V?$allocator@D@2@@1@@Z 1006ae64     msvcprtd:MSVCP60D.dll
 0004:00000e68       __imp_??1out_of_range@std@@UAE@XZ 1006ae68     msvcprtd:MSVCP60D.dll
 0004:00000e6c       __imp_??0out_of_range@std@@QAE@ABV01@@Z 1006ae6c     msvcprtd:MSVCP60D.dll
 0004:00000e70       __imp_??0logic_error@std@@QAE@ABV01@@Z 1006ae70     msvcprtd:MSVCP60D.dll
 0004:00000e74       __imp_??0_Lockit@std@@QAE@XZ 1006ae74     msvcprtd:MSVCP60D.dll
 0004:00000e78       __imp_??1_Lockit@std@@QAE@XZ 1006ae78     msvcprtd:MSVCP60D.dll
 0004:00000e7c       __imp_??0runtime_error@std@@QAE@ABV?$basic_string@DU?$char_traits@D@std@@V?$allocator@D@2@@1@@Z 1006ae7c     msvcprtd:MSVCP60D.dll
 0004:00000e80       __imp_??1runtime_error@std@@UAE@XZ 1006ae80     msvcprtd:MSVCP60D.dll
 0004:00000e84       __imp_??0runtime_error@std@@QAE@ABV01@@Z 1006ae84     msvcprtd:MSVCP60D.dll
 0004:00000e88       __imp_??0?$basic_string@DU?$char_traits@D@std@@V?$allocator@D@2@@std@@QAE@PBDABV?$allocator@D@1@@Z 1006ae88     msvcprtd:MSVCP60D.dll
 0004:00000e8c       __imp_??Hstd@@YA?AV?$basic_string@DU?$char_traits@D@std@@V?$allocator@D@2@@0@ABV10@PBD@Z 1006ae8c     msvcprtd:MSVCP60D.dll
 0004:00000e90       __imp_??1?$basic_string@DU?$char_traits@D@std@@V?$allocator@D@2@@std@@QAE@XZ 1006ae90     msvcprtd:MSVCP60D.dll
 0004:00000e94       \177MSVCP60D_NULL_THUNK_DATA 1006ae94     msvcprtd:MSVCP60D.dll
 0004:00000edc       __imp__memcmp              1006aedc     MSVCRTD:MSVCRTD.dll
 0004:00000ee0       __imp___adjust_fdiv        1006aee0     MSVCRTD:MSVCRTD.dll
 0004:00000ee4       __imp___chkesp             1006aee4     MSVCRTD:MSVCRTD.dll
 0004:00000ee8       __imp__atan                1006aee8     MSVCRTD:MSVCRTD.dll
 0004:00000eec       __imp__tan                 1006aeec     MSVCRTD:MSVCRTD.dll
 0004:00000ef0       __imp____CxxFrameHandler   1006aef0     MSVCRTD:MSVCRTD.dll
 0004:00000ef4       __imp_??0exception@@QAE@ABV0@@Z 1006aef4     MSVCRTD:MSVCRTD.dll
 0004:00000ef8       __imp___CxxThrowException@8 1006aef8     MSVCRTD:MSVCRTD.dll
 0004:00000efc       __imp_??3@YAXPAX@Z         1006aefc     MSVCRTD:MSVCRTD.dll
 0004:00000f00       __imp__memcpy              1006af00     MSVCRTD:MSVCRTD.dll
 0004:00000f04       __imp_??2@YAPAXIHPBDH@Z    1006af04     MSVCRTD:MSVCRTD.dll
 0004:00000f08       __imp__sqrt                1006af08     MSVCRTD:MSVCRTD.dll
 0004:00000f0c       __imp___assert             1006af0c     MSVCRTD:MSVCRTD.dll
 0004:00000f10       __imp_??2@YAPAXI@Z         1006af10     MSVCRTD:MSVCRTD.dll
 0004:00000f14       __imp__sprintf             1006af14     MSVCRTD:MSVCRTD.dll
 0004:00000f18       __imp__fread               1006af18     MSVCRTD:MSVCRTD.dll
 0004:00000f1c       __imp__fseek               1006af1c     MSVCRTD:MSVCRTD.dll
 0004:00000f20       __imp__free                1006af20     MSVCRTD:MSVCRTD.dll
 0004:00000f24       __imp__fclose              1006af24     MSVCRTD:MSVCRTD.dll
 0004:00000f28       __imp___malloc_dbg         1006af28     MSVCRTD:MSVCRTD.dll
 0004:00000f2c       __imp__memset              1006af2c     MSVCRTD:MSVCRTD.dll
 0004:00000f30       __imp__malloc              1006af30     MSVCRTD:MSVCRTD.dll
 0004:00000f34       __imp__pow                 1006af34     MSVCRTD:MSVCRTD.dll
 0004:00000f38       __imp__ftell               1006af38     MSVCRTD:MSVCRTD.dll
 0004:00000f3c       __imp__fabs                1006af3c     MSVCRTD:MSVCRTD.dll
 0004:00000f40       __imp__strlen              1006af40     MSVCRTD:MSVCRTD.dll
 0004:00000f44       __imp__memmove             1006af44     MSVCRTD:MSVCRTD.dll
 0004:00000f48       __imp___vsnprintf          1006af48     MSVCRTD:MSVCRTD.dll
 0004:00000f4c       __imp__fopen               1006af4c     MSVCRTD:MSVCRTD.dll
 0004:00000f50       __imp___snprintf           1006af50     MSVCRTD:MSVCRTD.dll
 0004:00000f54       __imp__strcmp              1006af54     MSVCRTD:MSVCRTD.dll
 0004:00000f58       __imp__strtol              1006af58     MSVCRTD:MSVCRTD.dll
 0004:00000f5c       __imp___errno              1006af5c     MSVCRTD:MSVCRTD.dll
 0004:00000f60       __imp__memchr              1006af60     MSVCRTD:MSVCRTD.dll
 0004:00000f64       __imp__fgetc               1006af64     MSVCRTD:MSVCRTD.dll
 0004:00000f68       __imp___iob                1006af68     MSVCRTD:MSVCRTD.dll
 0004:00000f6c       __imp__strerror            1006af6c     MSVCRTD:MSVCRTD.dll
 0004:00000f70       __imp__strncpy             1006af70     MSVCRTD:MSVCRTD.dll
 0004:00000f74       __imp__time                1006af74     MSVCRTD:MSVCRTD.dll
 0004:00000f78       __imp___HUGE               1006af78     MSVCRTD:MSVCRTD.dll
 0004:00000f7c       __imp__strtod              1006af7c     MSVCRTD:MSVCRTD.dll
 0004:00000f80       __imp__strchr              1006af80     MSVCRTD:MSVCRTD.dll
 0004:00000f84       __imp__localeconv          1006af84     MSVCRTD:MSVCRTD.dll
 0004:00000f88       __imp____dllonexit         1006af88     MSVCRTD:MSVCRTD.dll
 0004:00000f8c       __imp___onexit             1006af8c     MSVCRTD:MSVCRTD.dll
 0004:00000f90       __imp_??1type_info@@UAE@XZ 1006af90     MSVCRTD:MSVCRTD.dll
 0004:00000f94       __imp___except_handler3    1006af94     MSVCRTD:MSVCRTD.dll
 0004:00000f98       __imp_?terminate@@YAXXZ    1006af98     MSVCRTD:MSVCRTD.dll
 0004:00000f9c       __imp___free_dbg           1006af9c     MSVCRTD:MSVCRTD.dll
 0004:00000fa0       __imp___initterm           1006afa0     MSVCRTD:MSVCRTD.dll
 0004:00000fa4       \177MSVCRTD_NULL_THUNK_DATA 1006afa4     MSVCRTD:MSVCRTD.dll
 0004:00000ff8       __imp__glTexImage2D@36     1006aff8     opengl32:OPENGL32.dll
 0004:00000ffc       __imp__glTexParameterf@12  1006affc     opengl32:OPENGL32.dll
 0004:00001000       __imp__glGetFloatv@8       1006b000     opengl32:OPENGL32.dll
 0004:00001004       __imp__glTexParameteri@12  1006b004     opengl32:OPENGL32.dll
 0004:00001008       __imp__glBindTexture@8     1006b008     opengl32:OPENGL32.dll
 0004:0000100c       __imp__glGenTextures@8     1006b00c     opengl32:OPENGL32.dll
 0004:00001010       __imp__glGetIntegerv@8     1006b010     opengl32:OPENGL32.dll
 0004:00001014       __imp__glDrawElements@16   1006b014     opengl32:OPENGL32.dll
 0004:00001018       __imp__glDeleteTextures@8  1006b018     opengl32:OPENGL32.dll
 0004:0000101c       \177OPENGL32_NULL_THUNK_DATA 1006b01c     opengl32:OPENGL32.dll
 0004:0000104c       __imp__MessageBoxA@16      1006b04c     User32:USER32.dll
 0004:00001050       __imp__GetActiveWindow@0   1006b050     User32:USER32.dll
 0004:00001054       \177USER32_NULL_THUNK_DATA 1006b054     User32:USER32.dll
 0004:00001080       __imp____glewUniform1f     1006b080     glew32:glew32.dll
 0004:00001084       __imp____glewUniformMatrix4fv 1006b084     glew32:glew32.dll
 0004:00001088       __imp____glewUniform4fv    1006b088     glew32:glew32.dll
 0004:0000108c       __imp____glewActiveTexture 1006b08c     glew32:glew32.dll
 0004:00001090       __imp____glewUniform1i     1006b090     glew32:glew32.dll
 0004:00001094       __imp____glewDisableVertexAttribArray 1006b094     glew32:glew32.dll
 0004:00001098       __imp____glewBufferSubData 1006b098     glew32:glew32.dll
 0004:0000109c       __imp____glewGenBuffers    1006b09c     glew32:glew32.dll
 0004:000010a0       __imp____glewBindBuffer    1006b0a0     glew32:glew32.dll
 0004:000010a4       __imp____glewBufferData    1006b0a4     glew32:glew32.dll
 0004:000010a8       __imp__glewGetExtension    1006b0a8     glew32:glew32.dll
 0004:000010ac       __imp____glewUniform3fv    1006b0ac     glew32:glew32.dll
 0004:000010b0       __imp____glewCreateShader  1006b0b0     glew32:glew32.dll
 0004:000010b4       __imp____glewShaderSource  1006b0b4     glew32:glew32.dll
 0004:000010b8       __imp____glewCompileShader 1006b0b8     glew32:glew32.dll
 0004:000010bc       __imp____glewGetShaderiv   1006b0bc     glew32:glew32.dll
 0004:000010c0       __imp____glewGetShaderInfoLog 1006b0c0     glew32:glew32.dll
 0004:000010c4       __imp____glewDeleteShader  1006b0c4     glew32:glew32.dll
 0004:000010c8       __imp____glewCreateProgram 1006b0c8     glew32:glew32.dll
 0004:000010cc       __imp____glewAttachShader  1006b0cc     glew32:glew32.dll
 0004:000010d0       __imp____glewLinkProgram   1006b0d0     glew32:glew32.dll
 0004:000010d4       __imp____glewGetProgramiv  1006b0d4     glew32:glew32.dll
 0004:000010d8       __imp____glewGetProgramInfoLog 1006b0d8     glew32:glew32.dll
 0004:000010dc       __imp____glewDeleteProgram 1006b0dc     glew32:glew32.dll
 0004:000010e0       __imp____glewGetActiveUniform 1006b0e0     glew32:glew32.dll
 0004:000010e4       __imp____glewGetUniformLocation 1006b0e4     glew32:glew32.dll
 0004:000010e8       __imp____glewEnableVertexAttribArray 1006b0e8     glew32:glew32.dll
 0004:000010ec       __imp____glewUseProgram    1006b0ec     glew32:glew32.dll
 0004:000010f0       __imp____glewGenerateMipmapEXT 1006b0f0     glew32:glew32.dll
 0004:000010f4       __imp____glewDeleteBuffers 1006b0f4     glew32:glew32.dll
 0004:000010f8       __imp__glewExperimental    1006b0f8     glew32:glew32.dll
 0004:000010fc       __imp__glewInit            1006b0fc     glew32:glew32.dll
 0004:00001100       __imp____glewVertexAttribPointer 1006b100     glew32:glew32.dll
 0004:00001104       \177glew32_NULL_THUNK_DATA 1006b104     glew32:glew32.dll

 entry point at        0001:00039d40

